///////////////////////////////////////////////////////////////////////////////
//                                                                            /
// IAR C/C++ Compiler V8.10.3.10338/W32 for 8051        02/Aug/2020  17:06:29 /
// Copyright 2004-2011 IAR Systems AB.                                        /
//                                                                            /
//    Core               =  plain                                             /
//    Code model         =  banked                                            /
//    Data model         =  large                                             /
//    Calling convention =  xdata reentrant                                   /
//    Constant location  =  data_rom                                          /
//    Dptr setup         =  1,16                                              /
//    Source file        =  D:\Github\CC2530Projects\ZStack-2.5.1a\Projects\z /
//                          stack\Samples\SampleApp\Source\SampleApp.c        /
//    Command line       =  -f D:\Github\CC2530Projects\ZStack-2.5.1a\Project /
//                          s\zstack\Samples\SampleApp\CC2530DB\..\..\..\Tool /
//                          s\CC2530DB\f8wEndev.cfg (-DCPU32MHZ               /
//                          -DROOT=__near_func -DMAC_CFG_TX_DATA_MAX=3        /
//                          -DMAC_CFG_TX_MAX=6 -DMAC_CFG_RX_MAX=3) -f         /
//                          D:\Github\CC2530Projects\ZStack-2.5.1a\Projects\z /
//                          stack\Samples\SampleApp\CC2530DB\..\..\..\Tools\C /
//                          C2530DB\f8wConfig.cfg (-DZIGBEEPRO -DSECURE=0     /
//                          -DZG_SECURE_DYNAMIC=0 -DREFLECTOR                 /
//                          -DDEFAULT_CHANLIST=0x02000000                     /
//                          -DZDAPP_CONFIG_PAN_ID=0x1234                      /
//                          -DNWK_START_DELAY=100 -DEXTENDED_JOINING_RANDOM_M /
//                          ASK=0x007F -DBEACON_REQUEST_DELAY=100             /
//                          -DBEACON_REQ_DELAY_MASK=0x00FF                    /
//                          -DLINK_STATUS_JITTER_MASK=0x007F                  /
//                          -DROUTE_EXPIRY_TIME=30 -DAPSC_ACK_WAIT_DURATION_P /
//                          OLLED=3000 -DNWK_INDIRECT_MSG_TIMEOUT=7           /
//                          -DMAX_RREQ_ENTRIES=8 -DAPSC_MAX_FRAME_RETRIES=3   /
//                          -DNWK_MAX_DATA_RETRIES=2                          /
//                          -DMAX_POLL_FAILURE_RETRIES=2 -DMAX_BCAST=9        /
//                          -DAPS_MAX_GROUPS=16 -DMAX_RTG_ENTRIES=40          /
//                          -DNWK_MAX_BINDING_ENTRIES=4                       /
//                          -DMAX_BINDING_CLUSTER_IDS=4                       /
//                          "-DDEFAULT_KEY={0x01, 0x03, 0x05, 0x07, 0x09,     /
//                          0x0B, 0x0D, 0x0F, 0x00, 0x02, 0x04, 0x06, 0x08,   /
//                          0x0A, 0x0C, 0x0D}" -DMAC_MAX_FRAME_SIZE=116       /
//                          -DZDNWKMGR_MIN_TRANSMISSIONS=20 "-DCONST=const    /
//                          __code" -DGENERIC=__generic                       /
//                          -DRFD_RCVC_ALWAYS_ON=FALSE -DPOLL_RATE=1000       /
//                          -DQUEUED_POLL_RATE=100 -DRESPONSE_POLL_RATE=100)  /
//                          -DREJOIN_POLL_RATE=440 D:\Github\CC2530Projects\Z /
//                          Stack-2.5.1a\Projects\zstack\Samples\SampleApp\So /
//                          urce\SampleApp.c -D NWK_AUTO_POLL -D ZTOOL_P1 -D  /
//                          MT_TASK -D MT_SYS_FUNC -D MT_ZDO_FUNC -D          /
//                          LCD_SUPPORTED -D SENSOR_NODE -lC                  /
//                          D:\Github\CC2530Projects\ZStack-2.5.1a\Projects\z /
//                          stack\Samples\SampleApp\CC2530DB\SensorNode\List\ /
//                           -lA D:\Github\CC2530Projects\ZStack-2.5.1a\Proje /
//                          cts\zstack\Samples\SampleApp\CC2530DB\SensorNode\ /
//                          List\ --diag_suppress Pe001,Pa010 -o              /
//                          D:\Github\CC2530Projects\ZStack-2.5.1a\Projects\z /
//                          stack\Samples\SampleApp\CC2530DB\SensorNode\Obj\  /
//                          -e --no_code_motion --debug --core=plain          /
//                          --dptr=16,1 --data_model=large                    /
//                          --code_model=banked --calling_convention=xdata_re /
//                          entrant --place_constants=data_rom                /
//                          --nr_virtual_regs 16 -I                           /
//                          D:\Github\CC2530Projects\ZStack-2.5.1a\Projects\z /
//                          stack\Samples\SampleApp\CC2530DB\ -I              /
//                          D:\Github\CC2530Projects\ZStack-2.5.1a\Projects\z /
//                          stack\Samples\SampleApp\CC2530DB\..\Source\ -I    /
//                          D:\Github\CC2530Projects\ZStack-2.5.1a\Projects\z /
//                          stack\Samples\SampleApp\CC2530DB\..\..\..\ZMain\T /
//                          I2530DB\ -I D:\Github\CC2530Projects\ZStack-2.5.1 /
//                          a\Projects\zstack\Samples\SampleApp\CC2530DB\..\. /
//                          .\..\..\..\Components\hal\include\ -I             /
//                          D:\Github\CC2530Projects\ZStack-2.5.1a\Projects\z /
//                          stack\Samples\SampleApp\CC2530DB\..\..\..\..\..\C /
//                          omponents\hal\target\CC2530EB\ -I                 /
//                          D:\Github\CC2530Projects\ZStack-2.5.1a\Projects\z /
//                          stack\Samples\SampleApp\CC2530DB\..\..\..\..\..\C /
//                          omponents\mac\include\ -I                         /
//                          D:\Github\CC2530Projects\ZStack-2.5.1a\Projects\z /
//                          stack\Samples\SampleApp\CC2530DB\..\..\..\..\..\C /
//                          omponents\mac\high_level\ -I                      /
//                          D:\Github\CC2530Projects\ZStack-2.5.1a\Projects\z /
//                          stack\Samples\SampleApp\CC2530DB\..\..\..\..\..\C /
//                          omponents\mac\low_level\srf04\ -I                 /
//                          D:\Github\CC2530Projects\ZStack-2.5.1a\Projects\z /
//                          stack\Samples\SampleApp\CC2530DB\..\..\..\..\..\C /
//                          omponents\mac\low_level\srf04\single_chip\ -I     /
//                          D:\Github\CC2530Projects\ZStack-2.5.1a\Projects\z /
//                          stack\Samples\SampleApp\CC2530DB\..\..\..\..\..\C /
//                          omponents\mt\ -I D:\Github\CC2530Projects\ZStack- /
//                          2.5.1a\Projects\zstack\Samples\SampleApp\CC2530DB /
//                          \..\..\..\..\..\Components\osal\include\ -I       /
//                          D:\Github\CC2530Projects\ZStack-2.5.1a\Projects\z /
//                          stack\Samples\SampleApp\CC2530DB\..\..\..\..\..\C /
//                          omponents\services\saddr\ -I                      /
//                          D:\Github\CC2530Projects\ZStack-2.5.1a\Projects\z /
//                          stack\Samples\SampleApp\CC2530DB\..\..\..\..\..\C /
//                          omponents\services\sdata\ -I                      /
//                          D:\Github\CC2530Projects\ZStack-2.5.1a\Projects\z /
//                          stack\Samples\SampleApp\CC2530DB\..\..\..\..\..\C /
//                          omponents\stack\af\ -I D:\Github\CC2530Projects\Z /
//                          Stack-2.5.1a\Projects\zstack\Samples\SampleApp\CC /
//                          2530DB\..\..\..\..\..\Components\stack\nwk\ -I    /
//                          D:\Github\CC2530Projects\ZStack-2.5.1a\Projects\z /
//                          stack\Samples\SampleApp\CC2530DB\..\..\..\..\..\C /
//                          omponents\stack\sapi\ -I                          /
//                          D:\Github\CC2530Projects\ZStack-2.5.1a\Projects\z /
//                          stack\Samples\SampleApp\CC2530DB\..\..\..\..\..\C /
//                          omponents\stack\sec\ -I                           /
//                          D:\Github\CC2530Projects\ZStack-2.5.1a\Projects\z /
//                          stack\Samples\SampleApp\CC2530DB\..\..\..\..\..\C /
//                          omponents\stack\sys\ -I                           /
//                          D:\Github\CC2530Projects\ZStack-2.5.1a\Projects\z /
//                          stack\Samples\SampleApp\CC2530DB\..\..\..\..\..\C /
//                          omponents\stack\zdo\ -I                           /
//                          D:\Github\CC2530Projects\ZStack-2.5.1a\Projects\z /
//                          stack\Samples\SampleApp\CC2530DB\..\..\..\..\..\C /
//                          omponents\zmac\ -I D:\Github\CC2530Projects\ZStac /
//                          k-2.5.1a\Projects\zstack\Samples\SampleApp\CC2530 /
//                          DB\..\..\..\..\..\Components\zmac\f8w\ -Ohz       /
//    List file          =  D:\Github\CC2530Projects\ZStack-2.5.1a\Projects\z /
//                          stack\Samples\SampleApp\CC2530DB\SensorNode\List\ /
//                          SampleApp.s51                                     /
//                                                                            /
//                                                                            /
///////////////////////////////////////////////////////////////////////////////

        NAME SampleApp

        RTMODEL "__SystemLibrary", "CLib"
        RTMODEL "__calling_convention", "xdata_reentrant"
        RTMODEL "__code_model", "banked"
        RTMODEL "__core", "plain"
        RTMODEL "__data_model", "large"
        RTMODEL "__dptr_size", "16"
        RTMODEL "__extended_stack", "disabled"
        RTMODEL "__location_for_constants", "data"
        RTMODEL "__number_of_dptrs", "1"
        RTMODEL "__rt_version", "1"

        RSEG DOVERLAY:DATA:NOROOT(0)
        RSEG IOVERLAY:IDATA:NOROOT(0)
        RSEG ISTACK:IDATA:NOROOT(0)
        RSEG PSTACK:XDATA:NOROOT(0)
        RSEG XSTACK:XDATA:NOROOT(0)

        EXTERN ?ALLOC_XSTACK8
        EXTERN ?BANKED_ENTER_XDATA
        EXTERN ?BANKED_LEAVE_XDATA
        EXTERN ?BDISPATCH
        EXTERN ?DEALLOC_XSTACK8
        EXTERN ?PUSH_XSTACK_I_ONE
        EXTERN ?PUSH_XSTACK_I_TWO
        EXTERN ?V0
        EXTERN ?XSP
        EXTERN ?XSTACK_DISP0_8
        EXTERN __INIT_XDATA_I
        EXTERN __INIT_XDATA_Z

        PUBLIC ??SampleApp_Init?relay
        FUNCTION ??SampleApp_Init?relay,0203H
        PUBLIC ??SampleApp_ProcessEvent?relay
        FUNCTION ??SampleApp_ProcessEvent?relay,0203H
        PUBLIC ??SensorNode_Send_Message?relay
        FUNCTION ??SensorNode_Send_Message?relay,0203H
        PUBLIC AppTitle
        PUBLIC SampleAppFlashCounter
        PUBLIC SampleAppPeriodicCounter
        PUBLIC SampleApp_ClusterList
        PUBLIC SampleApp_Flash_DstAddr
        PUBLIC SampleApp_Group
        PUBLIC SampleApp_Init
        FUNCTION SampleApp_Init,021203H
        ARGFRAME XSTACK, 0, STACK
        LOCFRAME XSTACK, 9, STACK
        PUBLIC SampleApp_NwkState
        PUBLIC SampleApp_P2P_DstAddr
        PUBLIC SampleApp_Periodic_DstAddr
        PUBLIC SampleApp_ProcessEvent
        FUNCTION SampleApp_ProcessEvent,021203H
        ARGFRAME XSTACK, 0, STACK
        LOCFRAME XSTACK, 12, STACK
        PUBLIC SampleApp_SimpleDesc
        PUBLIC SampleApp_TaskID
        PUBLIC SampleApp_TransID
        PUBLIC SampleApp_epDesc
        PUBLIC SensorNode_Send_Message
        FUNCTION SensorNode_Send_Message,021203H
        ARGFRAME XSTACK, 12, STACK
        ARGFRAME IOVERLAY, 0, STATIC
        ARGFRAME DOVERLAY, 0, STATIC
        LOCFRAME ISTACK, 1, STACK
        LOCFRAME XSTACK, 32, STACK
        PUBWEAK _A_P1
        
        CFI Names cfiNames0
        CFI StackFrame CFA_SP SP IDATA
        CFI StackFrame CFA_PSP16 PSP16 XDATA
        CFI StackFrame CFA_XSP16 XSP16 XDATA
        CFI StaticOverlayFrame CFA_IOVERLAY IOVERLAY
        CFI StaticOverlayFrame CFA_DOVERLAY DOVERLAY
        CFI Resource `PSW.CY`:1, `B.BR0`:1, `B.BR1`:1, `B.BR2`:1, `B.BR3`:1
        CFI Resource `B.BR4`:1, `B.BR5`:1, `B.BR6`:1, `B.BR7`:1, `VB.BR8`:1
        CFI Resource `VB.BR9`:1, `VB.BR10`:1, `VB.BR11`:1, `VB.BR12`:1
        CFI Resource `VB.BR13`:1, `VB.BR14`:1, `VB.BR15`:1, VB:8, B:8, A:8
        CFI Resource PSW:8, DPL0:8, DPH0:8, R0:8, R1:8, R2:8, R3:8, R4:8, R5:8
        CFI Resource R6:8, R7:8, V0:8, V1:8, V2:8, V3:8, V4:8, V5:8, V6:8, V7:8
        CFI Resource V8:8, V9:8, V10:8, V11:8, V12:8, V13:8, V14:8, V15:8, SP:8
        CFI Resource PSPH:8, PSPL:8, PSP16:16, XSPH:8, XSPL:8, XSP16:16
        CFI VirtualResource ?RET:24
        CFI Resource ?BRET_EXT:8
        CFI VirtualResource ?RET_HIGH:8, ?RET_LOW:8
        CFI ResourceParts PSP16 PSPH, PSPL
        CFI ResourceParts XSP16 XSPH, XSPL
        CFI ResourceParts ?RET ?BRET_EXT, ?RET_HIGH, ?RET_LOW
        CFI EndNames cfiNames0
        
        CFI Common cfiCommon0 Using cfiNames0
        CFI CodeAlign 1
        CFI DataAlign -1
        CFI ReturnAddress ?RET CODE
        CFI CFA_DOVERLAY Used
        CFI CFA_IOVERLAY Used
        CFI CFA_SP SP+-3
        CFI CFA_PSP16 PSP16+0
        CFI CFA_XSP16 XSP16+0
        CFI `PSW.CY` SameValue
        CFI `B.BR0` SameValue
        CFI `B.BR1` SameValue
        CFI `B.BR2` SameValue
        CFI `B.BR3` SameValue
        CFI `B.BR4` SameValue
        CFI `B.BR5` SameValue
        CFI `B.BR6` SameValue
        CFI `B.BR7` SameValue
        CFI `VB.BR8` SameValue
        CFI `VB.BR9` SameValue
        CFI `VB.BR10` SameValue
        CFI `VB.BR11` SameValue
        CFI `VB.BR12` SameValue
        CFI `VB.BR13` SameValue
        CFI `VB.BR14` SameValue
        CFI `VB.BR15` SameValue
        CFI VB SameValue
        CFI B Undefined
        CFI A Undefined
        CFI PSW SameValue
        CFI DPL0 SameValue
        CFI DPH0 SameValue
        CFI R0 Undefined
        CFI R1 Undefined
        CFI R2 Undefined
        CFI R3 Undefined
        CFI R4 Undefined
        CFI R5 Undefined
        CFI R6 SameValue
        CFI R7 SameValue
        CFI V0 SameValue
        CFI V1 SameValue
        CFI V2 SameValue
        CFI V3 SameValue
        CFI V4 SameValue
        CFI V5 SameValue
        CFI V6 SameValue
        CFI V7 SameValue
        CFI V8 SameValue
        CFI V9 SameValue
        CFI V10 SameValue
        CFI V11 SameValue
        CFI V12 SameValue
        CFI V13 SameValue
        CFI V14 SameValue
        CFI V15 SameValue
        CFI PSPH Undefined
        CFI PSPL Undefined
        CFI XSPH Undefined
        CFI XSPL Undefined
        CFI ?RET Concat
        CFI ?BRET_EXT Frame(CFA_SP, 3)
        CFI ?RET_HIGH Frame(CFA_SP, 2)
        CFI ?RET_LOW Frame(CFA_SP, 1)
        CFI EndCommon cfiCommon0
        
        
        CFI Common cfiCommon1 Using cfiNames0
        CFI CodeAlign 1
        CFI DataAlign -1
        CFI ReturnAddress ?RET CODE
        CFI CFA_DOVERLAY Used
        CFI CFA_IOVERLAY Used
        CFI CFA_SP SP+-2
        CFI CFA_PSP16 PSP16+0
        CFI CFA_XSP16 XSP16+0
        CFI `PSW.CY` SameValue
        CFI `B.BR0` SameValue
        CFI `B.BR1` SameValue
        CFI `B.BR2` SameValue
        CFI `B.BR3` SameValue
        CFI `B.BR4` SameValue
        CFI `B.BR5` SameValue
        CFI `B.BR6` SameValue
        CFI `B.BR7` SameValue
        CFI `VB.BR8` SameValue
        CFI `VB.BR9` SameValue
        CFI `VB.BR10` SameValue
        CFI `VB.BR11` SameValue
        CFI `VB.BR12` SameValue
        CFI `VB.BR13` SameValue
        CFI `VB.BR14` SameValue
        CFI `VB.BR15` SameValue
        CFI VB SameValue
        CFI B SameValue
        CFI A SameValue
        CFI PSW SameValue
        CFI DPL0 SameValue
        CFI DPH0 SameValue
        CFI R0 SameValue
        CFI R1 SameValue
        CFI R2 SameValue
        CFI R3 SameValue
        CFI R4 SameValue
        CFI R5 SameValue
        CFI R6 SameValue
        CFI R7 SameValue
        CFI V0 SameValue
        CFI V1 SameValue
        CFI V2 SameValue
        CFI V3 SameValue
        CFI V4 SameValue
        CFI V5 SameValue
        CFI V6 SameValue
        CFI V7 SameValue
        CFI V8 SameValue
        CFI V9 SameValue
        CFI V10 SameValue
        CFI V11 SameValue
        CFI V12 SameValue
        CFI V13 SameValue
        CFI V14 SameValue
        CFI V15 SameValue
        CFI PSPH Undefined
        CFI PSPL Undefined
        CFI XSPH Undefined
        CFI XSPL Undefined
        CFI ?RET Concat
        CFI ?BRET_EXT SameValue
        CFI ?RET_HIGH Frame(CFA_SP, 2)
        CFI ?RET_LOW Frame(CFA_SP, 1)
        CFI EndCommon cfiCommon1
        
LEDInit             SYMBOL "LEDInit"
DHT11Init           SYMBOL "DHT11Init"
afRegister          SYMBOL "afRegister"
RegisterForKeys     SYMBOL "RegisterForKeys"
osal_msg_receive    SYMBOL "osal_msg_receive"
osal_start_timerEx  SYMBOL "osal_start_timerEx"
osal_msg_deallocate SYMBOL "osal_msg_deallocate"
osal_rand           SYMBOL "osal_rand"
DHT11               SYMBOL "DHT11"
LightOn             SYMBOL "LightOn"
HCSR501On           SYMBOL "HCSR501On"
YL38On              SYMBOL "YL38On"
LCD_write_CN_string SYMBOL "LCD_write_CN_string"
LCD_write_EN_string SYMBOL "LCD_write_EN_string"
AF_DataRequest      SYMBOL "AF_DataRequest"
??AF_DataRequest?relay SYMBOL "?relay", AF_DataRequest
??DHT11?relay       SYMBOL "?relay", DHT11
??DHT11Init?relay   SYMBOL "?relay", DHT11Init
??HCSR501On?relay   SYMBOL "?relay", HCSR501On
??LCD_write_CN_string?relay SYMBOL "?relay", LCD_write_CN_string
??LCD_write_EN_string?relay SYMBOL "?relay", LCD_write_EN_string
??LEDInit?relay     SYMBOL "?relay", LEDInit
??LightOn?relay     SYMBOL "?relay", LightOn
??RegisterForKeys?relay SYMBOL "?relay", RegisterForKeys
??YL38On?relay      SYMBOL "?relay", YL38On
??afRegister?relay  SYMBOL "?relay", afRegister
??osal_msg_deallocate?relay SYMBOL "?relay", osal_msg_deallocate
??osal_msg_receive?relay SYMBOL "?relay", osal_msg_receive
??osal_rand?relay   SYMBOL "?relay", osal_rand
??osal_start_timerEx?relay SYMBOL "?relay", osal_start_timerEx
SampleApp_Init      SYMBOL "SampleApp_Init"
??SampleApp_Init?relay SYMBOL "?relay", SampleApp_Init
SampleApp_ProcessEvent SYMBOL "SampleApp_ProcessEvent"
??SampleApp_ProcessEvent?relay SYMBOL "?relay", SampleApp_ProcessEvent
SensorNode_Send_Message SYMBOL "SensorNode_Send_Message"
??SensorNode_Send_Message?relay SYMBOL "?relay", SensorNode_Send_Message

        EXTERN LEDInit
        FUNCTION LEDInit,0200H
        ARGFRAME ISTACK, 0, STACK
        ARGFRAME PSTACK, 0, STACK
        ARGFRAME XSTACK, 9, STACK
        ARGFRAME IOVERLAY, 0, STATIC
        ARGFRAME DOVERLAY, 0, STATIC
        EXTERN DHT11Init
        FUNCTION DHT11Init,0200H
        ARGFRAME ISTACK, 0, STACK
        ARGFRAME PSTACK, 0, STACK
        ARGFRAME XSTACK, 9, STACK
        ARGFRAME IOVERLAY, 0, STATIC
        ARGFRAME DOVERLAY, 0, STATIC
        EXTERN afRegister
        FUNCTION afRegister,0202H
        ARGFRAME ISTACK, 0, STACK
        ARGFRAME PSTACK, 0, STACK
        ARGFRAME XSTACK, 9, STACK
        ARGFRAME IOVERLAY, 0, STATIC
        ARGFRAME DOVERLAY, 0, STATIC
        EXTERN RegisterForKeys
        FUNCTION RegisterForKeys,0202H
        ARGFRAME ISTACK, 0, STACK
        ARGFRAME PSTACK, 0, STACK
        ARGFRAME XSTACK, 9, STACK
        ARGFRAME IOVERLAY, 0, STATIC
        ARGFRAME DOVERLAY, 0, STATIC
        EXTERN osal_msg_receive
        FUNCTION osal_msg_receive,0202H
        ARGFRAME ISTACK, 0, STACK
        ARGFRAME PSTACK, 0, STACK
        ARGFRAME XSTACK, 12, STACK
        ARGFRAME IOVERLAY, 0, STATIC
        ARGFRAME DOVERLAY, 0, STATIC
        EXTERN osal_start_timerEx
        FUNCTION osal_start_timerEx,0202H
        ARGFRAME ISTACK, 0, STACK
        ARGFRAME PSTACK, 0, STACK
        ARGFRAME XSTACK, 12, STACK
        ARGFRAME IOVERLAY, 0, STATIC
        ARGFRAME DOVERLAY, 0, STATIC
        EXTERN osal_msg_deallocate
        FUNCTION osal_msg_deallocate,0202H
        ARGFRAME ISTACK, 0, STACK
        ARGFRAME PSTACK, 0, STACK
        ARGFRAME XSTACK, 12, STACK
        ARGFRAME IOVERLAY, 0, STATIC
        ARGFRAME DOVERLAY, 0, STATIC
        EXTERN osal_rand
        FUNCTION osal_rand,0202H
        ARGFRAME ISTACK, 0, STACK
        ARGFRAME PSTACK, 0, STACK
        ARGFRAME XSTACK, 12, STACK
        ARGFRAME IOVERLAY, 0, STATIC
        ARGFRAME DOVERLAY, 0, STATIC
        EXTERN DHT11
        FUNCTION DHT11,0202H
        ARGFRAME ISTACK, 0, STACK
        ARGFRAME PSTACK, 0, STACK
        ARGFRAME XSTACK, 23, STACK
        ARGFRAME IOVERLAY, 0, STATIC
        ARGFRAME DOVERLAY, 0, STATIC
        EXTERN LightOn
        FUNCTION LightOn,0200H
        ARGFRAME ISTACK, 0, STACK
        ARGFRAME PSTACK, 0, STACK
        ARGFRAME XSTACK, 23, STACK
        ARGFRAME IOVERLAY, 0, STATIC
        ARGFRAME DOVERLAY, 0, STATIC
        EXTERN HCSR501On
        FUNCTION HCSR501On,0200H
        ARGFRAME ISTACK, 0, STACK
        ARGFRAME PSTACK, 0, STACK
        ARGFRAME XSTACK, 23, STACK
        ARGFRAME IOVERLAY, 0, STATIC
        ARGFRAME DOVERLAY, 0, STATIC
        EXTERN YL38On
        FUNCTION YL38On,0200H
        ARGFRAME ISTACK, 0, STACK
        ARGFRAME PSTACK, 0, STACK
        ARGFRAME XSTACK, 23, STACK
        ARGFRAME IOVERLAY, 0, STATIC
        ARGFRAME DOVERLAY, 0, STATIC
        EXTERN LCD_write_CN_string
        FUNCTION LCD_write_CN_string,0202H
        ARGFRAME ISTACK, 0, STACK
        ARGFRAME PSTACK, 0, STACK
        ARGFRAME XSTACK, 23, STACK
        ARGFRAME IOVERLAY, 0, STATIC
        ARGFRAME DOVERLAY, 0, STATIC
        EXTERN LCD_write_EN_string
        FUNCTION LCD_write_EN_string,0202H
        ARGFRAME ISTACK, 0, STACK
        ARGFRAME PSTACK, 0, STACK
        ARGFRAME XSTACK, 23, STACK
        ARGFRAME IOVERLAY, 0, STATIC
        ARGFRAME DOVERLAY, 0, STATIC
        EXTERN AF_DataRequest
        FUNCTION AF_DataRequest,0202H
        ARGFRAME ISTACK, 0, STACK
        ARGFRAME PSTACK, 0, STACK
        ARGFRAME XSTACK, 32, STACK
        ARGFRAME IOVERLAY, 0, STATIC
        ARGFRAME DOVERLAY, 0, STATIC
        EXTERN ??AF_DataRequest?relay
        FUNCTION ??AF_DataRequest?relay,00H
        EXTERN ??DHT11?relay
        FUNCTION ??DHT11?relay,00H
        EXTERN ??DHT11Init?relay
        FUNCTION ??DHT11Init?relay,00H
        EXTERN ??HCSR501On?relay
        FUNCTION ??HCSR501On?relay,00H
        EXTERN ??LCD_write_CN_string?relay
        FUNCTION ??LCD_write_CN_string?relay,00H
        EXTERN ??LCD_write_EN_string?relay
        FUNCTION ??LCD_write_EN_string?relay,00H
        EXTERN ??LEDInit?relay
        FUNCTION ??LEDInit?relay,00H
        EXTERN ??LightOn?relay
        FUNCTION ??LightOn?relay,00H
        EXTERN ??RegisterForKeys?relay
        FUNCTION ??RegisterForKeys?relay,00H
        EXTERN ??YL38On?relay
        FUNCTION ??YL38On?relay,00H
        EXTERN ??afRegister?relay
        FUNCTION ??afRegister?relay,00H
        EXTERN ??osal_msg_deallocate?relay
        FUNCTION ??osal_msg_deallocate?relay,00H
        EXTERN ??osal_msg_receive?relay
        FUNCTION ??osal_msg_receive?relay,00H
        EXTERN ??osal_rand?relay
        FUNCTION ??osal_rand?relay,00H
        EXTERN ??osal_start_timerEx?relay
        FUNCTION ??osal_start_timerEx?relay,00H
        EXTERN Color
        EXTERN Color_BK

// D:\Github\CC2530Projects\ZStack-2.5.1a\Projects\zstack\Samples\SampleApp\Source\SampleApp.c
//    1 /* 这是一份很恶心的代码，一份代码需要实现3个节点的功能，通过COORDINATOR,SENSOR_NODE,ACTUATOR_NODE三个预处理
//    2  * 命令来进行区别。官方就是这么说的，给的程序模板就是这样实现的，去他妈的TI！
//    3  * SENSOR_NODE: 定时采集数据，点播发送给协调器
//    4  * COORDINATOR: 接收SENSOR_NODE的数据，通过串口转发给PC机，根据数据产生指令并广播发送给ACTUATOR_NODE
//    5  * ACTUATOR_NODE: 接收COORDINATOR传送的指令，执行相应的动作
//    6 */
//    7 
//    8 #include "OSAL.h"
//    9 #include "ZGlobals.h"
//   10 #include "AF.h"
//   11 #include "aps_groups.h"
//   12 #include "ZDApp.h"
//   13 #include "SampleApp.h"
//   14 #include "SampleAppHw.h"
//   15 #include "OnBoard.h"

        ASEGN SFR_AN:DATA:NOROOT,090H
// union <unnamed> volatile __sfr _A_P1
_A_P1:
        DATA8
        DS 1
//   16 #include "hal_lcd.h"
//   17 #include "hal_led.h"
//   18 #include "hal_key.h"
//   19 #include "MT_UART.h"
//   20 #include "MT_APP.h"
//   21 #include "MT.h"
//   22 #include "General.h"
//   23 
//   24 //根据节点不同导入不同的头文件
//   25 #if defined (SENSOR_NODE)
//   26   #include "DHT11.h"            //温湿度传感器驱动
//   27   #include "HCSR501.h"          //人体红外传感器驱动
//   28   #include "LightIntensity.h"   //光照传感器驱动
//   29   #include "YL38.h"             //火焰传感器驱动
//   30 #elif defined (ACTUATOR_NODE)
//   31   #include "Beep.h"             //蜂鸣器驱动
//   32   #include "Motor.h"            //步进电机驱动
//   33   #include "Relay.h"            //继电器驱动
//   34 #endif
//   35 
//   36 //根据节点不同定义不同的全局变量
//   37 #if defined (ACTUATOR_NODE)
//   38   static uint8 __light;       //灯，1：亮，0：灭
//   39   static uint8 __beep;        //蜂鸣器，1：响，0：不响
//   40   static uint8 __motor_dir;   //电机转向，0：不转，1：顺时针，2：逆时针
//   41   static uint8 __motor_speed; //电机转速，[1,10]
//   42 #elif defined (COORDINATOR)
//   43   static uint8 light_status;  //用于记录灯光的状态
//   44   static uint8 light_count;   //用于灯光的延时熄灭
//   45   static uint8 fire_status;   //用于记录火灾警报的状态
//   46   static uint8 fire_count;    //用于火灾警报的鸣响延时
//   47 #endif
//   48 
//   49 
//   50 
//   51 

        RSEG XDATA_I:XDATA:NOROOT(0)
//   52 uint8 AppTitle[] = "Smart Home"; //应用程序名称
AppTitle:
        DATA8
        DS 11
        REQUIRE `?<Initializer for AppTitle>`
        REQUIRE __INIT_XDATA_I
//   53 

        RSEG XDATA_ROM_C:CONST:REORDER:NOROOT(0)
        DATA8
//   54 const cId_t SampleApp_ClusterList[SAMPLEAPP_MAX_CLUSTERS] =
SampleApp_ClusterList:
        DATA16
        DW 1
        DW 2
        DW 3
//   55 {
//   56   SAMPLEAPP_PERIODIC_CLUSTERID,
//   57   SAMPLEAPP_FLASH_CLUSTERID,
//   58   SAMPLEAPP_P2P_CLUSTERID
//   59 };
//   60 

        RSEG XDATA_ROM_C:CONST:REORDER:NOROOT(0)
        DATA8
//   61 const SimpleDescriptionFormat_t SampleApp_SimpleDesc =
SampleApp_SimpleDesc:
        DB 20
        DATA16
        DW 3848
        DW 1
        DATA8
        DB 0
        DB 3
        DATA16
        DW SampleApp_ClusterList
        DATA8
        DB 3
        DATA16
        DW SampleApp_ClusterList
//   62 {
//   63   SAMPLEAPP_ENDPOINT,              //  int Endpoint;
//   64   SAMPLEAPP_PROFID,                //  uint16 AppProfId[2];
//   65   SAMPLEAPP_DEVICEID,              //  uint16 AppDeviceId[2];
//   66   SAMPLEAPP_DEVICE_VERSION,        //  int   AppDevVer:4;
//   67   SAMPLEAPP_FLAGS,                 //  int   AppFlags:4;
//   68   SAMPLEAPP_MAX_CLUSTERS,          //  uint8  AppNumInClusters;
//   69   (cId_t *)SampleApp_ClusterList,  //  uint8 *pAppInClusterList;
//   70   SAMPLEAPP_MAX_CLUSTERS,          //  uint8  AppNumInClusters;
//   71   (cId_t *)SampleApp_ClusterList   //  uint8 *pAppInClusterList;
//   72 };
//   73 

        RSEG XDATA_Z:XDATA:NOROOT(0)
        DATA8
//   74 endPointDesc_t SampleApp_epDesc;
SampleApp_epDesc:
        DS 6
        REQUIRE __INIT_XDATA_Z
//   75 

        RSEG XDATA_Z:XDATA:NOROOT(0)
        DATA8
//   76 uint8 SampleApp_TaskID;   // Task ID for internal task/event processing
SampleApp_TaskID:
        DS 1
        REQUIRE __INIT_XDATA_Z
//   77                           // This variable will be received when
//   78                           // SampleApp_Init() is called.

        RSEG XDATA_Z:XDATA:NOROOT(0)
        DATA8
//   79 devStates_t SampleApp_NwkState;
SampleApp_NwkState:
        DS 1
        REQUIRE __INIT_XDATA_Z
//   80 

        RSEG XDATA_Z:XDATA:NOROOT(0)
        DATA8
//   81 uint8 SampleApp_TransID;  // This is the unique message ID (counter)
SampleApp_TransID:
        DS 1
        REQUIRE __INIT_XDATA_Z
//   82 

        RSEG XDATA_Z:XDATA:NOROOT(0)
        DATA8
//   83 afAddrType_t SampleApp_Periodic_DstAddr; //广播
SampleApp_Periodic_DstAddr:
        DS 12
        REQUIRE __INIT_XDATA_Z

        RSEG XDATA_Z:XDATA:NOROOT(0)
        DATA8
//   84 afAddrType_t SampleApp_Flash_DstAddr;    //组播
SampleApp_Flash_DstAddr:
        DS 12
        REQUIRE __INIT_XDATA_Z

        RSEG XDATA_Z:XDATA:NOROOT(0)
        DATA8
//   85 afAddrType_t SampleApp_P2P_DstAddr;      //点播
SampleApp_P2P_DstAddr:
        DS 12
        REQUIRE __INIT_XDATA_Z
//   86 

        RSEG XDATA_Z:XDATA:NOROOT(0)
        DATA8
//   87 aps_Group_t SampleApp_Group;
SampleApp_Group:
        DS 18
        REQUIRE __INIT_XDATA_Z

        RSEG XDATA_Z:XDATA:NOROOT(0)
        DATA8
//   88 uint8 SampleAppPeriodicCounter = 0;
SampleAppPeriodicCounter:
        DS 1
        REQUIRE __INIT_XDATA_Z

        RSEG XDATA_Z:XDATA:NOROOT(0)
        DATA8
//   89 uint8 SampleAppFlashCounter = 0;
SampleAppFlashCounter:
        DS 1
        REQUIRE __INIT_XDATA_Z
//   90 
//   91 
//   92 void SampleApp_SendFlashMessage( uint16 flashTime );
//   93 
//   94 #if defined (SENSOR_NODE)
//   95   void SensorNode_Send_Message(void);
//   96 #elif defined (COORDINATOR)
//   97   void Coordinator_Receive_Data(afIncomingMSGPacket_t *pckt);
//   98 #elif defined (ACTUATOR_NODE)
//   99   void ActuatorNode_Receive_Data(afIncomingMSGPacket_t *pckt);
//  100 #endif
//  101 
//  102 

        RSEG BANKED_CODE:CODE:NOROOT(0)
//  103 void SampleApp_Init( uint8 task_id )
SampleApp_Init:
        CFI Block cfiBlock0 Using cfiCommon0
        CFI Function SampleApp_Init
        CODE
//  104 { 
        FUNCALL SampleApp_Init, LEDInit
        LOCFRAME ISTACK, 0, STACK
        LOCFRAME PSTACK, 0, STACK
        LOCFRAME XSTACK, 9, STACK
        LOCFRAME IOVERLAY, 0, STATIC
        LOCFRAME DOVERLAY, 0, STATIC
        ARGFRAME ISTACK, 0, STACK
        ARGFRAME PSTACK, 0, STACK
        ARGFRAME XSTACK, 9, STACK
        ARGFRAME IOVERLAY, 0, STATIC
        ARGFRAME DOVERLAY, 0, STATIC
        FUNCALL SampleApp_Init, DHT11Init
        LOCFRAME ISTACK, 0, STACK
        LOCFRAME PSTACK, 0, STACK
        LOCFRAME XSTACK, 9, STACK
        LOCFRAME IOVERLAY, 0, STATIC
        LOCFRAME DOVERLAY, 0, STATIC
        ARGFRAME ISTACK, 0, STACK
        ARGFRAME PSTACK, 0, STACK
        ARGFRAME XSTACK, 9, STACK
        ARGFRAME IOVERLAY, 0, STATIC
        ARGFRAME DOVERLAY, 0, STATIC
        FUNCALL SampleApp_Init, afRegister
        LOCFRAME ISTACK, 0, STACK
        LOCFRAME PSTACK, 0, STACK
        LOCFRAME XSTACK, 9, STACK
        LOCFRAME IOVERLAY, 0, STATIC
        LOCFRAME DOVERLAY, 0, STATIC
        ARGFRAME ISTACK, 0, STACK
        ARGFRAME PSTACK, 0, STACK
        ARGFRAME XSTACK, 9, STACK
        ARGFRAME IOVERLAY, 0, STATIC
        ARGFRAME DOVERLAY, 0, STATIC
        FUNCALL SampleApp_Init, RegisterForKeys
        LOCFRAME ISTACK, 0, STACK
        LOCFRAME PSTACK, 0, STACK
        LOCFRAME XSTACK, 9, STACK
        LOCFRAME IOVERLAY, 0, STATIC
        LOCFRAME DOVERLAY, 0, STATIC
        ARGFRAME ISTACK, 0, STACK
        ARGFRAME PSTACK, 0, STACK
        ARGFRAME XSTACK, 9, STACK
        ARGFRAME IOVERLAY, 0, STATIC
        ARGFRAME DOVERLAY, 0, STATIC
        MOV     A,#-0x9
        LCALL   ?BANKED_ENTER_XDATA
        CFI DPH0 load(1, XDATA, add(CFA_XSP16, literal(-1)))
        CFI DPL0 load(1, XDATA, add(CFA_XSP16, literal(-2)))
        CFI ?BRET_EXT load(1, XDATA, add(CFA_XSP16, literal(-3)))
        CFI ?RET_HIGH load(1, XDATA, add(CFA_XSP16, literal(-4)))
        CFI ?RET_LOW load(1, XDATA, add(CFA_XSP16, literal(-5)))
        CFI R7 load(1, XDATA, add(CFA_XSP16, literal(-6)))
        CFI V0 load(1, XDATA, add(CFA_XSP16, literal(-7)))
        CFI VB load(1, XDATA, add(CFA_XSP16, literal(-8)))
        CFI R6 load(1, XDATA, add(CFA_XSP16, literal(-9)))
        CFI CFA_SP SP+0
        CFI CFA_XSP16 add(XSP16, 9)
        ; Saved register size: 9
        ; Auto size: 0
        MOV     A,R1
//  105   SampleApp_TaskID = task_id;
        MOV     DPTR,#SampleApp_TaskID
        MOVX    @DPTR,A
//  106   SampleApp_NwkState = DEV_INIT;
        MOV     DPTR,#SampleApp_NwkState
        MOV     A,#0x1
        MOVX    @DPTR,A
//  107   SampleApp_TransID = 0;
        MOV     DPTR,#SampleApp_TransID
        CLR     A
        MOVX    @DPTR,A
//  108   
//  109 #if defined(COORDINATOR)
//  110   /*串口初始化*/
//  111   MT_UartInit();                  //串口初始化
//  112   MT_UartRegisterTaskID(task_id); //注册串口任务
//  113   HalUARTWrite(0, "uart init\n", osal_strlen("uart init\n"));
//  114   /*LED初始化*/
//  115   LEDInit();
//  116   /*灯光变量初始化*/
//  117   light_status = 0;
//  118   light_count  = 0;
//  119   fire_status  = 0;
//  120   fire_count   = 0;
//  121 #endif
//  122 
//  123 #if defined (SENSOR_NODE)
//  124   LEDInit();
        ; Setup parameters for call to function LEDInit
        LCALL   ??LEDInit?relay
//  125   DHT11Init();
        ; Setup parameters for call to function DHT11Init
        LCALL   ??DHT11Init?relay
//  126 #endif
//  127 
//  128 #if defined (ACTUATOR_NODE)
//  129   LEDInit();
//  130   BeepInit();
//  131   StepMotorInit();
//  132   RelayInit();
//  133 #endif
//  134 
//  135 
//  136 #if defined ( BUILD_ALL_DEVICES )
//  137   if ( readCoordinatorJumper() )
//  138     zgDeviceLogicalType = ZG_DEVICETYPE_COORDINATOR;
//  139   else
//  140     zgDeviceLogicalType = ZG_DEVICETYPE_ROUTER;
//  141 #endif // BUILD_ALL_DEVICES
//  142 
//  143 #if defined ( HOLD_AUTO_START )
//  144   ZDOInitDevice(0);
//  145 #endif
//  146 
//  147   /*广播配置*/ 
//  148   SampleApp_Periodic_DstAddr.addrMode = (afAddrMode_t)AddrBroadcast;
        MOV     DPTR,#SampleApp_Periodic_DstAddr + 8
        MOV     A,#0xf
        MOVX    @DPTR,A
//  149   SampleApp_Periodic_DstAddr.endPoint = SAMPLEAPP_ENDPOINT;
        INC     DPTR
        MOV     A,#0x14
        MOVX    @DPTR,A
//  150   SampleApp_Periodic_DstAddr.addr.shortAddr = 0xFFFF;
        MOV     DPTR,#SampleApp_Periodic_DstAddr
        MOV     A,#-0x1
        MOVX    @DPTR,A
        INC     DPTR
        MOVX    @DPTR,A
//  151   
//  152   /*点播配置*/
//  153   SampleApp_P2P_DstAddr.addrMode = (afAddrMode_t)Addr16Bit;  
        MOV     DPTR,#SampleApp_P2P_DstAddr + 8
        MOV     A,#0x2
        MOVX    @DPTR,A
//  154   SampleApp_P2P_DstAddr.endPoint = SAMPLEAPP_ENDPOINT; 
        INC     DPTR
        MOV     A,#0x14
        MOVX    @DPTR,A
//  155   SampleApp_P2P_DstAddr.addr.shortAddr = 0x0000;            
        MOV     DPTR,#SampleApp_P2P_DstAddr
        CLR     A
        MOVX    @DPTR,A
        INC     DPTR
        MOVX    @DPTR,A
//  156 
//  157   /*端点配置*/
//  158   SampleApp_epDesc.endPoint = SAMPLEAPP_ENDPOINT;
        MOV     DPTR,#SampleApp_epDesc
        MOV     A,#0x14
        MOVX    @DPTR,A
//  159   SampleApp_epDesc.task_id = &SampleApp_TaskID;
        INC     DPTR
        MOV     A,#SampleApp_TaskID & 0xff
        MOVX    @DPTR,A
        INC     DPTR
        MOV     A,#(SampleApp_TaskID >> 8) & 0xff
        MOVX    @DPTR,A
//  160   SampleApp_epDesc.simpleDesc
//  161             = (SimpleDescriptionFormat_t *)&SampleApp_SimpleDesc;
        INC     DPTR
        MOV     A,#SampleApp_SimpleDesc & 0xff
        MOVX    @DPTR,A
        INC     DPTR
        MOV     A,#(SampleApp_SimpleDesc >> 8) & 0xff
        MOVX    @DPTR,A
//  162   SampleApp_epDesc.latencyReq = noLatencyReqs;
        INC     DPTR
        CLR     A
        MOVX    @DPTR,A
//  163 
//  164   // Register the endpoint description with the AF
//  165   afRegister( &SampleApp_epDesc );
        ; Setup parameters for call to function afRegister
        MOV     R2,#SampleApp_epDesc & 0xff
        MOV     R3,#(SampleApp_epDesc >> 8) & 0xff
        LCALL   ??afRegister?relay
//  166 
//  167   // Register for all key events - This app will handle all key events
//  168   RegisterForKeys( SampleApp_TaskID );
        ; Setup parameters for call to function RegisterForKeys
        MOV     DPTR,#SampleApp_TaskID
        MOVX    A,@DPTR
        MOV     R1,A
        LCALL   ??RegisterForKeys?relay
//  169 }
        MOV     R7,#0x1
        LJMP    ?BANKED_LEAVE_XDATA
        CFI EndBlock cfiBlock0
//  170 
//  171 

        RSEG BANKED_CODE:CODE:NOROOT(0)
//  172 uint16 SampleApp_ProcessEvent( uint8 task_id, uint16 events )
SampleApp_ProcessEvent:
        CFI Block cfiBlock1 Using cfiCommon0
        CFI Function SampleApp_ProcessEvent
        CODE
//  173 {
        FUNCALL SampleApp_ProcessEvent, osal_msg_receive
        LOCFRAME ISTACK, 0, STACK
        LOCFRAME PSTACK, 0, STACK
        LOCFRAME XSTACK, 12, STACK
        LOCFRAME IOVERLAY, 0, STATIC
        LOCFRAME DOVERLAY, 0, STATIC
        ARGFRAME ISTACK, 0, STACK
        ARGFRAME PSTACK, 0, STACK
        ARGFRAME XSTACK, 12, STACK
        ARGFRAME IOVERLAY, 0, STATIC
        ARGFRAME DOVERLAY, 0, STATIC
        FUNCALL SampleApp_ProcessEvent, osal_start_timerEx
        LOCFRAME ISTACK, 0, STACK
        LOCFRAME PSTACK, 0, STACK
        LOCFRAME XSTACK, 12, STACK
        LOCFRAME IOVERLAY, 0, STATIC
        LOCFRAME DOVERLAY, 0, STATIC
        ARGFRAME ISTACK, 0, STACK
        ARGFRAME PSTACK, 0, STACK
        ARGFRAME XSTACK, 12, STACK
        ARGFRAME IOVERLAY, 0, STATIC
        ARGFRAME DOVERLAY, 0, STATIC
        FUNCALL SampleApp_ProcessEvent, osal_msg_deallocate
        LOCFRAME ISTACK, 0, STACK
        LOCFRAME PSTACK, 0, STACK
        LOCFRAME XSTACK, 12, STACK
        LOCFRAME IOVERLAY, 0, STATIC
        LOCFRAME DOVERLAY, 0, STATIC
        ARGFRAME ISTACK, 0, STACK
        ARGFRAME PSTACK, 0, STACK
        ARGFRAME XSTACK, 12, STACK
        ARGFRAME IOVERLAY, 0, STATIC
        ARGFRAME DOVERLAY, 0, STATIC
        FUNCALL SampleApp_ProcessEvent, osal_msg_receive
        LOCFRAME ISTACK, 0, STACK
        LOCFRAME PSTACK, 0, STACK
        LOCFRAME XSTACK, 12, STACK
        LOCFRAME IOVERLAY, 0, STATIC
        LOCFRAME DOVERLAY, 0, STATIC
        ARGFRAME ISTACK, 0, STACK
        ARGFRAME PSTACK, 0, STACK
        ARGFRAME XSTACK, 12, STACK
        ARGFRAME IOVERLAY, 0, STATIC
        ARGFRAME DOVERLAY, 0, STATIC
        FUNCALL SampleApp_ProcessEvent, SensorNode_Send_Message
        LOCFRAME ISTACK, 0, STACK
        LOCFRAME PSTACK, 0, STACK
        LOCFRAME XSTACK, 12, STACK
        LOCFRAME IOVERLAY, 0, STATIC
        LOCFRAME DOVERLAY, 0, STATIC
        ARGFRAME ISTACK, 0, STACK
        ARGFRAME PSTACK, 0, STACK
        ARGFRAME XSTACK, 12, STACK
        ARGFRAME IOVERLAY, 0, STATIC
        ARGFRAME DOVERLAY, 0, STATIC
        FUNCALL SampleApp_ProcessEvent, osal_rand
        LOCFRAME ISTACK, 0, STACK
        LOCFRAME PSTACK, 0, STACK
        LOCFRAME XSTACK, 12, STACK
        LOCFRAME IOVERLAY, 0, STATIC
        LOCFRAME DOVERLAY, 0, STATIC
        ARGFRAME ISTACK, 0, STACK
        ARGFRAME PSTACK, 0, STACK
        ARGFRAME XSTACK, 12, STACK
        ARGFRAME IOVERLAY, 0, STATIC
        ARGFRAME DOVERLAY, 0, STATIC
        FUNCALL SampleApp_ProcessEvent, osal_start_timerEx
        LOCFRAME ISTACK, 0, STACK
        LOCFRAME PSTACK, 0, STACK
        LOCFRAME XSTACK, 12, STACK
        LOCFRAME IOVERLAY, 0, STATIC
        LOCFRAME DOVERLAY, 0, STATIC
        ARGFRAME ISTACK, 0, STACK
        ARGFRAME PSTACK, 0, STACK
        ARGFRAME XSTACK, 12, STACK
        ARGFRAME IOVERLAY, 0, STATIC
        ARGFRAME DOVERLAY, 0, STATIC
        MOV     A,#-0xc
        LCALL   ?BANKED_ENTER_XDATA
        CFI DPH0 load(1, XDATA, add(CFA_XSP16, literal(-1)))
        CFI DPL0 load(1, XDATA, add(CFA_XSP16, literal(-2)))
        CFI ?BRET_EXT load(1, XDATA, add(CFA_XSP16, literal(-3)))
        CFI ?RET_HIGH load(1, XDATA, add(CFA_XSP16, literal(-4)))
        CFI ?RET_LOW load(1, XDATA, add(CFA_XSP16, literal(-5)))
        CFI R7 load(1, XDATA, add(CFA_XSP16, literal(-6)))
        CFI V3 load(1, XDATA, add(CFA_XSP16, literal(-7)))
        CFI V2 load(1, XDATA, add(CFA_XSP16, literal(-8)))
        CFI V1 load(1, XDATA, add(CFA_XSP16, literal(-9)))
        CFI V0 load(1, XDATA, add(CFA_XSP16, literal(-10)))
        CFI VB load(1, XDATA, add(CFA_XSP16, literal(-11)))
        CFI R6 load(1, XDATA, add(CFA_XSP16, literal(-12)))
        CFI CFA_SP SP+0
        CFI CFA_XSP16 add(XSP16, 12)
        ; Saved register size: 12
        ; Auto size: 0
        MOV     A,R2
        MOV     R6,A
        MOV     A,R3
        MOV     R7,A
//  174   afIncomingMSGPacket_t *MSGpkt;
//  175   (void)task_id;  // Intentionally unreferenced parameter
//  176 
//  177   if ( events & SYS_EVENT_MSG )
        ANL     A,#0x80
        JZ      ??SampleApp_ProcessEvent_0
//  178   {
//  179     MSGpkt = (afIncomingMSGPacket_t *)osal_msg_receive( SampleApp_TaskID );
        ; Setup parameters for call to function osal_msg_receive
        SJMP    ??SampleApp_ProcessEvent_1
//  180     while ( MSGpkt )
//  181     {
//  182       switch ( MSGpkt->hdr.event )
??SampleApp_ProcessEvent_2:
        MOV     DPL,?V0 + 0
        MOV     DPH,?V0 + 1
        MOVX    A,@DPTR
        XRL     A,#0xd1
        JNZ     ??SampleApp_ProcessEvent_3
//  183       {
//  184         case AF_INCOMING_MSG_CMD:
//  185           #if defined (COORDINATOR) //协调器接收SENSOR_NODE的数据
//  186             Coordinator_Receive_Data(MSGpkt);
//  187           #elif defined (ACTUATOR_NODE) //ACTUATOR_NODE接收协调器的指令
//  188             ActuatorNode_Receive_Data(MSGpkt);
//  189           #endif
//  190           break;
//  191 
//  192         case ZDO_STATE_CHANGE:
//  193           SampleApp_NwkState = (devStates_t)(MSGpkt->hdr.status);
        INC     DPTR
        MOVX    A,@DPTR
        MOV     DPTR,#SampleApp_NwkState
        MOVX    @DPTR,A
//  194           if ((SampleApp_NwkState == DEV_END_DEVICE) )
        XRL     A,#0x6
        JNZ     ??SampleApp_ProcessEvent_3
//  195           {
//  196           #if defined (SENSOR_NODE) //只有传感节点需要定期发送数据
//  197             //启动定时器，每隔1s采集一次数据并发送
//  198             osal_start_timerEx( SampleApp_TaskID,
//  199                               SAMPLEAPP_SEND_PERIODIC_MSG_EVT,
//  200                               SAMPLEAPP_SEND_PERIODIC_MSG_TIMEOUT );
        ; Setup parameters for call to function osal_start_timerEx
        MOV     R4,#-0x18
        MOV     R5,#0x3
        MOV     R2,#0x1
        MOV     R3,#0x0
        MOV     DPTR,#SampleApp_TaskID
        MOVX    A,@DPTR
        MOV     R1,A
        LCALL   ??osal_start_timerEx?relay
//  201 
//  202           #endif
//  203           }
//  204           else
//  205           {
//  206             // Device is no longer in the network
//  207           }
//  208           break;
//  209 
//  210         default:
//  211           break;
//  212       }
//  213 
//  214       // Release the memory
//  215       osal_msg_deallocate( (uint8 *)MSGpkt );
??SampleApp_ProcessEvent_3:
        ; Setup parameters for call to function osal_msg_deallocate
        MOV     R2,?V0 + 0
        MOV     R3,?V0 + 1
        LCALL   ??osal_msg_deallocate?relay
//  216 
//  217       // Next - if one is available
//  218       MSGpkt = (afIncomingMSGPacket_t *)osal_msg_receive( SampleApp_TaskID );
        ; Setup parameters for call to function osal_msg_receive
??SampleApp_ProcessEvent_1:
        MOV     DPTR,#SampleApp_TaskID
        MOVX    A,@DPTR
        MOV     R1,A
        LCALL   ??osal_msg_receive?relay
        MOV     ?V0 + 0,R2
        MOV     ?V0 + 1,R3
//  219     }
        MOV     A,?V0 + 0
        ORL     A,?V0 + 1
        JNZ     ??SampleApp_ProcessEvent_2
//  220 
//  221     // return unprocessed events
//  222     return (events ^ SYS_EVENT_MSG);
        MOV     A,R6
        MOV     R2,A
        MOV     A,R7
        XRL     A,#0x80
??SampleApp_ProcessEvent_4:
        MOV     R3,A
        SJMP    ??SampleApp_ProcessEvent_5
//  223   }
//  224 
//  225   if ( events & SAMPLEAPP_SEND_PERIODIC_MSG_EVT )
??SampleApp_ProcessEvent_0:
        MOV     A,R6
        MOV     C,0xE0 /* A   */.0
        JNC     ??SampleApp_ProcessEvent_6
//  226   {
//  227     //只有SensorNode主动发送数据
//  228   #if defined (SENSOR_NODE)
//  229     SensorNode_Send_Message();
        ; Setup parameters for call to function SensorNode_Send_Message
        LCALL   ??SensorNode_Send_Message?relay
//  230   #endif
//  231     // Setup to send message again in normal period (+ a little jitter)
//  232     osal_start_timerEx( SampleApp_TaskID, SAMPLEAPP_SEND_PERIODIC_MSG_EVT,
//  233         (SAMPLEAPP_SEND_PERIODIC_MSG_TIMEOUT + (osal_rand() & 0x00FF)) );
        ; Setup parameters for call to function osal_rand
        LCALL   ??osal_rand?relay
        ; Setup parameters for call to function osal_start_timerEx
        MOV     A,R2
        ADD     A,#-0x18
        MOV     R4,A
        CLR     A
        ADDC    A,#0x3
        MOV     R5,A
        MOV     R2,#0x1
        MOV     R3,#0x0
        MOV     DPTR,#SampleApp_TaskID
        MOVX    A,@DPTR
        MOV     R1,A
        LCALL   ??osal_start_timerEx?relay
//  234 
//  235     // return unprocessed events
//  236     return (events ^ SAMPLEAPP_SEND_PERIODIC_MSG_EVT);
        MOV     A,R6
        XRL     A,#0x1
        MOV     R2,A
        MOV     A,R7
        SJMP    ??SampleApp_ProcessEvent_4
//  237   }
//  238 
//  239   // Discard unknown events
//  240   return 0;
??SampleApp_ProcessEvent_6:
        MOV     R2,#0x0
        MOV     R3,#0x0
??SampleApp_ProcessEvent_5:
        MOV     R7,#0x4
        LJMP    ?BANKED_LEAVE_XDATA
        CFI EndBlock cfiBlock1
//  241 }
//  242 
//  243 
//  244 #if defined (SENSOR_NODE)

        RSEG BANKED_CODE:CODE:NOROOT(0)
//  245 void SensorNode_Send_Message( void )
SensorNode_Send_Message:
        CFI Block cfiBlock2 Using cfiCommon0
        CFI Function SensorNode_Send_Message
        CODE
//  246 {
        FUNCALL SensorNode_Send_Message, DHT11
        LOCFRAME ISTACK, 0, STACK
        LOCFRAME PSTACK, 0, STACK
        LOCFRAME XSTACK, 23, STACK
        LOCFRAME IOVERLAY, 0, STATIC
        LOCFRAME DOVERLAY, 0, STATIC
        ARGFRAME ISTACK, 0, STACK
        ARGFRAME PSTACK, 0, STACK
        ARGFRAME XSTACK, 23, STACK
        ARGFRAME IOVERLAY, 0, STATIC
        ARGFRAME DOVERLAY, 0, STATIC
        FUNCALL SensorNode_Send_Message, LightOn
        LOCFRAME ISTACK, 0, STACK
        LOCFRAME PSTACK, 0, STACK
        LOCFRAME XSTACK, 23, STACK
        LOCFRAME IOVERLAY, 0, STATIC
        LOCFRAME DOVERLAY, 0, STATIC
        ARGFRAME ISTACK, 0, STACK
        ARGFRAME PSTACK, 0, STACK
        ARGFRAME XSTACK, 23, STACK
        ARGFRAME IOVERLAY, 0, STATIC
        ARGFRAME DOVERLAY, 0, STATIC
        FUNCALL SensorNode_Send_Message, HCSR501On
        LOCFRAME ISTACK, 0, STACK
        LOCFRAME PSTACK, 0, STACK
        LOCFRAME XSTACK, 23, STACK
        LOCFRAME IOVERLAY, 0, STATIC
        LOCFRAME DOVERLAY, 0, STATIC
        ARGFRAME ISTACK, 0, STACK
        ARGFRAME PSTACK, 0, STACK
        ARGFRAME XSTACK, 23, STACK
        ARGFRAME IOVERLAY, 0, STATIC
        ARGFRAME DOVERLAY, 0, STATIC
        FUNCALL SensorNode_Send_Message, YL38On
        LOCFRAME ISTACK, 0, STACK
        LOCFRAME PSTACK, 0, STACK
        LOCFRAME XSTACK, 23, STACK
        LOCFRAME IOVERLAY, 0, STATIC
        LOCFRAME DOVERLAY, 0, STATIC
        ARGFRAME ISTACK, 0, STACK
        ARGFRAME PSTACK, 0, STACK
        ARGFRAME XSTACK, 23, STACK
        ARGFRAME IOVERLAY, 0, STATIC
        ARGFRAME DOVERLAY, 0, STATIC
        FUNCALL SensorNode_Send_Message, LCD_write_CN_string
        LOCFRAME ISTACK, 0, STACK
        LOCFRAME PSTACK, 0, STACK
        LOCFRAME XSTACK, 23, STACK
        LOCFRAME IOVERLAY, 0, STATIC
        LOCFRAME DOVERLAY, 0, STATIC
        ARGFRAME ISTACK, 0, STACK
        ARGFRAME PSTACK, 0, STACK
        ARGFRAME XSTACK, 23, STACK
        ARGFRAME IOVERLAY, 0, STATIC
        ARGFRAME DOVERLAY, 0, STATIC
        FUNCALL SensorNode_Send_Message, LCD_write_EN_string
        LOCFRAME ISTACK, 0, STACK
        LOCFRAME PSTACK, 0, STACK
        LOCFRAME XSTACK, 23, STACK
        LOCFRAME IOVERLAY, 0, STATIC
        LOCFRAME DOVERLAY, 0, STATIC
        ARGFRAME ISTACK, 0, STACK
        ARGFRAME PSTACK, 0, STACK
        ARGFRAME XSTACK, 23, STACK
        ARGFRAME IOVERLAY, 0, STATIC
        ARGFRAME DOVERLAY, 0, STATIC
        FUNCALL SensorNode_Send_Message, LCD_write_CN_string
        LOCFRAME ISTACK, 0, STACK
        LOCFRAME PSTACK, 0, STACK
        LOCFRAME XSTACK, 23, STACK
        LOCFRAME IOVERLAY, 0, STATIC
        LOCFRAME DOVERLAY, 0, STATIC
        ARGFRAME ISTACK, 0, STACK
        ARGFRAME PSTACK, 0, STACK
        ARGFRAME XSTACK, 23, STACK
        ARGFRAME IOVERLAY, 0, STATIC
        ARGFRAME DOVERLAY, 0, STATIC
        FUNCALL SensorNode_Send_Message, LCD_write_CN_string
        LOCFRAME ISTACK, 0, STACK
        LOCFRAME PSTACK, 0, STACK
        LOCFRAME XSTACK, 23, STACK
        LOCFRAME IOVERLAY, 0, STATIC
        LOCFRAME DOVERLAY, 0, STATIC
        ARGFRAME ISTACK, 0, STACK
        ARGFRAME PSTACK, 0, STACK
        ARGFRAME XSTACK, 23, STACK
        ARGFRAME IOVERLAY, 0, STATIC
        ARGFRAME DOVERLAY, 0, STATIC
        FUNCALL SensorNode_Send_Message, LCD_write_EN_string
        LOCFRAME ISTACK, 0, STACK
        LOCFRAME PSTACK, 0, STACK
        LOCFRAME XSTACK, 23, STACK
        LOCFRAME IOVERLAY, 0, STATIC
        LOCFRAME DOVERLAY, 0, STATIC
        ARGFRAME ISTACK, 0, STACK
        ARGFRAME PSTACK, 0, STACK
        ARGFRAME XSTACK, 23, STACK
        ARGFRAME IOVERLAY, 0, STATIC
        ARGFRAME DOVERLAY, 0, STATIC
        FUNCALL SensorNode_Send_Message, LCD_write_CN_string
        LOCFRAME ISTACK, 0, STACK
        LOCFRAME PSTACK, 0, STACK
        LOCFRAME XSTACK, 23, STACK
        LOCFRAME IOVERLAY, 0, STATIC
        LOCFRAME DOVERLAY, 0, STATIC
        ARGFRAME ISTACK, 0, STACK
        ARGFRAME PSTACK, 0, STACK
        ARGFRAME XSTACK, 23, STACK
        ARGFRAME IOVERLAY, 0, STATIC
        ARGFRAME DOVERLAY, 0, STATIC
        FUNCALL SensorNode_Send_Message, LCD_write_CN_string
        LOCFRAME ISTACK, 0, STACK
        LOCFRAME PSTACK, 0, STACK
        LOCFRAME XSTACK, 23, STACK
        LOCFRAME IOVERLAY, 0, STATIC
        LOCFRAME DOVERLAY, 0, STATIC
        ARGFRAME ISTACK, 0, STACK
        ARGFRAME PSTACK, 0, STACK
        ARGFRAME XSTACK, 23, STACK
        ARGFRAME IOVERLAY, 0, STATIC
        ARGFRAME DOVERLAY, 0, STATIC
        FUNCALL SensorNode_Send_Message, LCD_write_CN_string
        LOCFRAME ISTACK, 0, STACK
        LOCFRAME PSTACK, 0, STACK
        LOCFRAME XSTACK, 23, STACK
        LOCFRAME IOVERLAY, 0, STATIC
        LOCFRAME DOVERLAY, 0, STATIC
        ARGFRAME ISTACK, 0, STACK
        ARGFRAME PSTACK, 0, STACK
        ARGFRAME XSTACK, 23, STACK
        ARGFRAME IOVERLAY, 0, STATIC
        ARGFRAME DOVERLAY, 0, STATIC
        FUNCALL SensorNode_Send_Message, LCD_write_CN_string
        LOCFRAME ISTACK, 0, STACK
        LOCFRAME PSTACK, 0, STACK
        LOCFRAME XSTACK, 23, STACK
        LOCFRAME IOVERLAY, 0, STATIC
        LOCFRAME DOVERLAY, 0, STATIC
        ARGFRAME ISTACK, 0, STACK
        ARGFRAME PSTACK, 0, STACK
        ARGFRAME XSTACK, 23, STACK
        ARGFRAME IOVERLAY, 0, STATIC
        ARGFRAME DOVERLAY, 0, STATIC
        FUNCALL SensorNode_Send_Message, LCD_write_CN_string
        LOCFRAME ISTACK, 0, STACK
        LOCFRAME PSTACK, 0, STACK
        LOCFRAME XSTACK, 23, STACK
        LOCFRAME IOVERLAY, 0, STATIC
        LOCFRAME DOVERLAY, 0, STATIC
        ARGFRAME ISTACK, 0, STACK
        ARGFRAME PSTACK, 0, STACK
        ARGFRAME XSTACK, 23, STACK
        ARGFRAME IOVERLAY, 0, STATIC
        ARGFRAME DOVERLAY, 0, STATIC
        FUNCALL SensorNode_Send_Message, LCD_write_CN_string
        LOCFRAME ISTACK, 0, STACK
        LOCFRAME PSTACK, 0, STACK
        LOCFRAME XSTACK, 23, STACK
        LOCFRAME IOVERLAY, 0, STATIC
        LOCFRAME DOVERLAY, 0, STATIC
        ARGFRAME ISTACK, 0, STACK
        ARGFRAME PSTACK, 0, STACK
        ARGFRAME XSTACK, 23, STACK
        ARGFRAME IOVERLAY, 0, STATIC
        ARGFRAME DOVERLAY, 0, STATIC
        FUNCALL SensorNode_Send_Message, LCD_write_CN_string
        LOCFRAME ISTACK, 0, STACK
        LOCFRAME PSTACK, 0, STACK
        LOCFRAME XSTACK, 23, STACK
        LOCFRAME IOVERLAY, 0, STATIC
        LOCFRAME DOVERLAY, 0, STATIC
        ARGFRAME ISTACK, 0, STACK
        ARGFRAME PSTACK, 0, STACK
        ARGFRAME XSTACK, 23, STACK
        ARGFRAME IOVERLAY, 0, STATIC
        ARGFRAME DOVERLAY, 0, STATIC
        FUNCALL SensorNode_Send_Message, LCD_write_CN_string
        LOCFRAME ISTACK, 0, STACK
        LOCFRAME PSTACK, 0, STACK
        LOCFRAME XSTACK, 23, STACK
        LOCFRAME IOVERLAY, 0, STATIC
        LOCFRAME DOVERLAY, 0, STATIC
        ARGFRAME ISTACK, 0, STACK
        ARGFRAME PSTACK, 0, STACK
        ARGFRAME XSTACK, 23, STACK
        ARGFRAME IOVERLAY, 0, STATIC
        ARGFRAME DOVERLAY, 0, STATIC
        FUNCALL SensorNode_Send_Message, LCD_write_CN_string
        LOCFRAME ISTACK, 0, STACK
        LOCFRAME PSTACK, 0, STACK
        LOCFRAME XSTACK, 23, STACK
        LOCFRAME IOVERLAY, 0, STATIC
        LOCFRAME DOVERLAY, 0, STATIC
        ARGFRAME ISTACK, 0, STACK
        ARGFRAME PSTACK, 0, STACK
        ARGFRAME XSTACK, 23, STACK
        ARGFRAME IOVERLAY, 0, STATIC
        ARGFRAME DOVERLAY, 0, STATIC
        FUNCALL SensorNode_Send_Message, LCD_write_CN_string
        LOCFRAME ISTACK, 0, STACK
        LOCFRAME PSTACK, 0, STACK
        LOCFRAME XSTACK, 23, STACK
        LOCFRAME IOVERLAY, 0, STATIC
        LOCFRAME DOVERLAY, 0, STATIC
        ARGFRAME ISTACK, 0, STACK
        ARGFRAME PSTACK, 0, STACK
        ARGFRAME XSTACK, 23, STACK
        ARGFRAME IOVERLAY, 0, STATIC
        ARGFRAME DOVERLAY, 0, STATIC
        FUNCALL SensorNode_Send_Message, AF_DataRequest
        LOCFRAME ISTACK, 0, STACK
        LOCFRAME PSTACK, 0, STACK
        LOCFRAME XSTACK, 32, STACK
        LOCFRAME IOVERLAY, 0, STATIC
        LOCFRAME DOVERLAY, 0, STATIC
        ARGFRAME ISTACK, 0, STACK
        ARGFRAME PSTACK, 0, STACK
        ARGFRAME XSTACK, 32, STACK
        ARGFRAME IOVERLAY, 0, STATIC
        ARGFRAME DOVERLAY, 0, STATIC
        MOV     A,#-0xa
        LCALL   ?BANKED_ENTER_XDATA
        CFI DPH0 load(1, XDATA, add(CFA_XSP16, literal(-1)))
        CFI DPL0 load(1, XDATA, add(CFA_XSP16, literal(-2)))
        CFI ?BRET_EXT load(1, XDATA, add(CFA_XSP16, literal(-3)))
        CFI ?RET_HIGH load(1, XDATA, add(CFA_XSP16, literal(-4)))
        CFI ?RET_LOW load(1, XDATA, add(CFA_XSP16, literal(-5)))
        CFI R7 load(1, XDATA, add(CFA_XSP16, literal(-6)))
        CFI V1 load(1, XDATA, add(CFA_XSP16, literal(-7)))
        CFI V0 load(1, XDATA, add(CFA_XSP16, literal(-8)))
        CFI VB load(1, XDATA, add(CFA_XSP16, literal(-9)))
        CFI R6 load(1, XDATA, add(CFA_XSP16, literal(-10)))
        CFI CFA_SP SP+0
        CFI CFA_XSP16 add(XSP16, 10)
        ; Saved register size: 10
        ; Auto size: 13
        MOV     A,#-0xd
        LCALL   ?ALLOC_XSTACK8
        CFI CFA_XSP16 add(XSP16, 23)
//  247   uint8 temp,humid,light,human,flame;  //温度、湿度、光照、人体红外、火焰
//  248   char str_temp[3];             //2个字符的温度显示数据
//  249   char str_humid[3];            //2个字符的湿度显示数据
//  250   uint8 msg[5];                  //通过无线发送的数据
//  251 
//  252 
//  253   DHT11(&temp, &humid); //获取温湿度
        ; Setup parameters for call to function DHT11
        MOV     DPL,?XSP + 0
        MOV     DPH,?XSP + 1
        MOV     R4,DPL
        MOV     R5,DPH
        MOV     A,#0x1
        LCALL   ?XSTACK_DISP0_8
        MOV     R2,DPL
        MOV     R3,DPH
        LCALL   ??DHT11?relay
//  254   light = LightOn();    //获取光照强度
        ; Setup parameters for call to function LightOn
        LCALL   ??LightOn?relay
        MOV     A,R1
        MOV     R6,A
//  255   human = HCSR501On();  //获取人体红外
        ; Setup parameters for call to function HCSR501On
        LCALL   ??HCSR501On?relay
        MOV     A,R1
        MOV     R7,A
//  256   flame = YL38On();     //获取火焰
        ; Setup parameters for call to function YL38On
        LCALL   ??YL38On?relay
        MOV     A,R1
        MOV     ?V0 + 0,A
//  257   
//  258   /*输出到LCD显示*/
//  259   Color    = BLACK;
        MOV     DPTR,#Color
        CLR     A
        MOVX    @DPTR,A
        INC     DPTR
        MOVX    @DPTR,A
//  260   Color_BK = WHITE;
        MOV     DPTR,#Color_BK
        MOV     A,#-0x1
        MOVX    @DPTR,A
        INC     DPTR
        MOVX    @DPTR,A
//  261   //温度
//  262   str_temp[0] = (temp / 10) + 48;  //温度十位
        MOV     B,#0xa
        MOV     A,#0x1
        LCALL   ?XSTACK_DISP0_8
        MOVX    A,@DPTR
        DIV     AB
        ADD     A,#0x30
        PUSH    A
        CFI CFA_SP SP+-1
        MOV     A,#0x5
        LCALL   ?XSTACK_DISP0_8
        POP     A
        CFI CFA_SP SP+0
        MOVX    @DPTR,A
//  263   str_temp[1] = (temp % 10) + 48;  //温度个位
        MOV     A,#0x1
        LCALL   ?XSTACK_DISP0_8
        LCALL   ?Subroutine0 & 0xFFFF
??CrossCallReturnLabel_0:
        PUSH    A
        CFI CFA_SP SP+-1
        MOV     A,#0x6
        LCALL   ?XSTACK_DISP0_8
        POP     A
        CFI CFA_SP SP+0
        MOVX    @DPTR,A
//  264   str_temp[2] = '\0';
        MOV     A,#0x7
        LCALL   ?XSTACK_DISP0_8
        CLR     A
        MOVX    @DPTR,A
//  265   LCD_write_CN_string(7,  50, "温度：");
        ; Setup parameters for call to function LCD_write_CN_string
        MOV     R4,#`?<Constant "\\316\\302\\266\\310\\243\\272">` & 0xff
        MOV     R5,#(`?<Constant "\\316\\302\\266\\310\\243\\272">` >> 8) & 0xff
        MOV     R2,#0x32
        MOV     R1,#0x7
        LCALL   ??LCD_write_CN_string?relay
//  266   LCD_write_EN_string(49, 50, str_temp);
        ; Setup parameters for call to function LCD_write_EN_string
        MOV     A,#0x5
        LCALL   ?XSTACK_DISP0_8
        MOV     R4,DPL
        MOV     R5,DPH
        MOV     R2,#0x32
        MOV     R1,#0x31
        LCALL   ??LCD_write_EN_string?relay
//  267   LCD_write_CN_string(63, 50, "℃");
        ; Setup parameters for call to function LCD_write_CN_string
        MOV     R4,#`?<Constant "\\241\\346">` & 0xff
        MOV     R5,#(`?<Constant "\\241\\346">` >> 8) & 0xff
        MOV     R2,#0x32
        MOV     R1,#0x3f
        LCALL   ??LCD_write_CN_string?relay
//  268   //湿度
//  269   str_humid[0] = (humid / 10) + 48;  //湿度十位
        MOV     B,#0xa
        MOV     DPL,?XSP + 0
        MOV     DPH,?XSP + 1
        MOVX    A,@DPTR
        DIV     AB
        ADD     A,#0x30
        PUSH    A
        CFI CFA_SP SP+-1
        MOV     A,#0x2
        LCALL   ?XSTACK_DISP0_8
        POP     A
        CFI CFA_SP SP+0
        MOVX    @DPTR,A
//  270   str_humid[1] = (humid % 10) + 48;  //湿度个位
        MOV     DPL,?XSP + 0
        MOV     DPH,?XSP + 1
        LCALL   ?Subroutine0 & 0xFFFF
??CrossCallReturnLabel_1:
        PUSH    A
        CFI CFA_SP SP+-1
        MOV     A,#0x3
        LCALL   ?XSTACK_DISP0_8
        POP     A
        CFI CFA_SP SP+0
        MOVX    @DPTR,A
//  271   str_humid[2] = '\0';
        MOV     A,#0x4
        LCALL   ?XSTACK_DISP0_8
        CLR     A
        MOVX    @DPTR,A
//  272   LCD_write_CN_string(7,  65, "湿度：");     
        ; Setup parameters for call to function LCD_write_CN_string
        MOV     R4,#`?<Constant "\\312\\252\\266\\310\\243\\272">` & 0xff
        MOV     R5,#(`?<Constant "\\312\\252\\266\\310\\243\\272">` >> 8) & 0xff
        MOV     R2,#0x41
        MOV     R1,#0x7
        LCALL   ??LCD_write_CN_string?relay
//  273   LCD_write_EN_string(49, 65, str_humid );
        ; Setup parameters for call to function LCD_write_EN_string
        MOV     A,#0x2
        LCALL   ?XSTACK_DISP0_8
        MOV     R4,DPL
        MOV     R5,DPH
        MOV     R2,#0x41
        MOV     R1,#0x31
        LCALL   ??LCD_write_EN_string?relay
//  274   LCD_write_CN_string(63, 65, "％");
        ; Setup parameters for call to function LCD_write_CN_string
        MOV     R4,#`?<Constant "\\243\\245">` & 0xff
        MOV     R5,#(`?<Constant "\\243\\245">` >> 8) & 0xff
        MOV     R2,#0x41
        MOV     R1,#0x3f
        LCALL   ??LCD_write_CN_string?relay
//  275   //光照
//  276   LCD_write_CN_string(7, 80, "光照：");
        ; Setup parameters for call to function LCD_write_CN_string
        MOV     R4,#`?<Constant "\\271\\342\\325\\325\\243\\272">` & 0xff
        MOV     R5,#(`?<Constant "\\271\\342\\325\\325\\243\\272">` >> 8) & 0xff
        MOV     R2,#0x50
        LCALL   ?Subroutine1 & 0xFFFF
//  277   if(light == 1)
??CrossCallReturnLabel_2:
        XRL     A,R6
        JNZ     ??SensorNode_Send_Message_0
//  278     LCD_write_CN_string(49, 80, "白天");
        ; Setup parameters for call to function LCD_write_CN_string
        MOV     R4,#`?<Constant "\\260\\327\\314\\354">` & 0xff
        MOV     R5,#(`?<Constant "\\260\\327\\314\\354">` >> 8) & 0xff
        SJMP    ??SensorNode_Send_Message_1
//  279   else 
//  280     LCD_write_CN_string(49, 80, "黑夜");
??SensorNode_Send_Message_0:
        ; Setup parameters for call to function LCD_write_CN_string
        MOV     R4,#`?<Constant "\\272\\332\\322\\271">` & 0xff
        MOV     R5,#(`?<Constant "\\272\\332\\322\\271">` >> 8) & 0xff
??SensorNode_Send_Message_1:
        MOV     R2,#0x50
        MOV     R1,#0x31
        LCALL   ??LCD_write_CN_string?relay
//  281   //人体红外
//  282   LCD_write_CN_string(7,    95, "红外：");
        ; Setup parameters for call to function LCD_write_CN_string
        MOV     R4,#`?<Constant "\\272\\354\\315\\342\\243\\272">` & 0xff
        MOV     R5,#(`?<Constant "\\272\\354\\315\\342\\243\\272">` >> 8) & 0xff
        MOV     R2,#0x5f
        LCALL   ?Subroutine1 & 0xFFFF
//  283   if(human == 1)
??CrossCallReturnLabel_3:
        XRL     A,R7
        JNZ     ??SensorNode_Send_Message_2
//  284     LCD_write_CN_string(49, 95, "有人");
        ; Setup parameters for call to function LCD_write_CN_string
        MOV     R4,#`?<Constant "\\323\\320\\310\\313">` & 0xff
        MOV     R5,#(`?<Constant "\\323\\320\\310\\313">` >> 8) & 0xff
        SJMP    ??SensorNode_Send_Message_3
//  285   else
//  286     LCD_write_CN_string(49, 95, "无人");
??SensorNode_Send_Message_2:
        ; Setup parameters for call to function LCD_write_CN_string
        MOV     R4,#`?<Constant "\\316\\336\\310\\313">` & 0xff
        MOV     R5,#(`?<Constant "\\316\\336\\310\\313">` >> 8) & 0xff
??SensorNode_Send_Message_3:
        MOV     R2,#0x5f
        MOV     R1,#0x31
        LCALL   ??LCD_write_CN_string?relay
//  287   //火焰
//  288   LCD_write_CN_string(7,    110, "火焰：");
        ; Setup parameters for call to function LCD_write_CN_string
        MOV     R4,#`?<Constant "\\273\\360\\321\\346\\243\\272">` & 0xff
        MOV     R5,#(`?<Constant "\\273\\360\\321\\346\\243\\272">` >> 8) & 0xff
        MOV     R2,#0x6e
        LCALL   ?Subroutine1 & 0xFFFF
//  289   if(flame == 1)
??CrossCallReturnLabel_4:
        XRL     A,?V0 + 0
        JNZ     ??SensorNode_Send_Message_4
//  290     LCD_write_CN_string(49, 110, "有");
        ; Setup parameters for call to function LCD_write_CN_string
        MOV     R4,#`?<Constant "\\323\\320">` & 0xff
        MOV     R5,#(`?<Constant "\\323\\320">` >> 8) & 0xff
        SJMP    ??SensorNode_Send_Message_5
//  291   else
//  292     LCD_write_CN_string(49, 110, "无");
??SensorNode_Send_Message_4:
        ; Setup parameters for call to function LCD_write_CN_string
        MOV     R4,#`?<Constant "\\316\\336">` & 0xff
        MOV     R5,#(`?<Constant "\\316\\336">` >> 8) & 0xff
??SensorNode_Send_Message_5:
        MOV     R2,#0x6e
        MOV     R1,#0x31
        LCALL   ??Subroutine2_0 & 0xFFFF
//  293 
//  294 
//  295 
//  296   /*点播发送给协调器*/
//  297   msg[0] = temp; msg[1] = humid; msg[2] = light; msg[3] = human; msg[4] = flame;
??CrossCallReturnLabel_5:
        LCALL   ?XSTACK_DISP0_8
        MOVX    A,@DPTR
        PUSH    A
        CFI CFA_SP SP+-1
        MOV     A,#0x8
        LCALL   ?XSTACK_DISP0_8
        POP     A
        CFI CFA_SP SP+0
        MOVX    @DPTR,A
        MOV     DPL,?XSP + 0
        MOV     DPH,?XSP + 1
        MOVX    A,@DPTR
        PUSH    A
        CFI CFA_SP SP+-1
        MOV     A,#0x9
        LCALL   ?XSTACK_DISP0_8
        POP     A
        CFI CFA_SP SP+0
        MOVX    @DPTR,A
        MOV     A,#0xa
        LCALL   ?XSTACK_DISP0_8
        MOV     A,R6
        MOVX    @DPTR,A
        MOV     A,#0xb
        LCALL   ?XSTACK_DISP0_8
        MOV     A,R7
        MOVX    @DPTR,A
        MOV     A,#0xc
        LCALL   ?XSTACK_DISP0_8
        MOV     A,?V0 + 0
        MOVX    @DPTR,A
//  298   if ( AF_DataRequest( &SampleApp_P2P_DstAddr, &SampleApp_epDesc,
//  299                        SAMPLEAPP_P2P_CLUSTERID,
//  300                        5,
//  301                        msg,
//  302                        &SampleApp_TransID,
//  303                        AF_DISCV_ROUTE,
//  304                        AF_DEFAULT_RADIUS ) == afStatus_SUCCESS )
        ; Setup parameters for call to function AF_DataRequest
        MOV     ?V0 + 0,#0x1e
        MOV     R0,#?V0 + 0
        LCALL   ?PUSH_XSTACK_I_ONE
        CFI CFA_XSP16 add(XSP16, 24)
        MOV     ?V0 + 0,#SampleApp_TransID & 0xff
        MOV     ?V0 + 1,#(SampleApp_TransID >> 8) & 0xff
        MOV     R0,#?V0 + 0
        LCALL   ?PUSH_XSTACK_I_TWO
        CFI CFA_XSP16 add(XSP16, 26)
        MOV     A,#0xb
        LCALL   ?XSTACK_DISP0_8
        MOV     ?V0 + 0,DPL
        MOV     ?V0 + 1,DPH
        MOV     R0,#?V0 + 0
        LCALL   ?PUSH_XSTACK_I_TWO
        CFI CFA_XSP16 add(XSP16, 28)
        MOV     ?V0 + 0,#0x5
        MOV     ?V0 + 1,#0x0
        MOV     R0,#?V0 + 0
        LCALL   ?PUSH_XSTACK_I_TWO
        CFI CFA_XSP16 add(XSP16, 30)
        MOV     ?V0 + 0,#0x3
        MOV     R0,#?V0 + 0
        LCALL   ?PUSH_XSTACK_I_TWO
        CFI CFA_XSP16 add(XSP16, 32)
        MOV     R1,#0x20
        MOV     R4,#SampleApp_epDesc & 0xff
        MOV     R5,#(SampleApp_epDesc >> 8) & 0xff
        MOV     R2,#SampleApp_P2P_DstAddr & 0xff
        MOV     R3,#(SampleApp_P2P_DstAddr >> 8) & 0xff
        LCALL   ??AF_DataRequest?relay
        MOV     A,#0x9
        LCALL   ?DEALLOC_XSTACK8
        CFI CFA_XSP16 add(XSP16, 23)
//  305   {
//  306   }
//  307   else
//  308   {
//  309     // Error occurred in request to send.
//  310   }
//  311 
//  312   LED2FLIP;
        SETB    B.0
        MOV     C,0x90.1
        JNB     B.0,??SensorNode_Send_Message_6
        CPL     C
??SensorNode_Send_Message_6:
        MOV     0x90.1,C
//  313 }
        MOV     A,#0xd
        LCALL   ?DEALLOC_XSTACK8
        CFI CFA_XSP16 add(XSP16, 10)
        MOV     R7,#0x2
        LJMP    ?BANKED_LEAVE_XDATA
        CFI EndBlock cfiBlock2
        REQUIRE _A_P1

        RSEG BANKED_CODE:CODE:NOROOT(0)
?Subroutine1:
        CFI Block cfiCond3 Using cfiCommon0
        CFI NoFunction
        CFI Conditional ??CrossCallReturnLabel_2
        CFI R6 load(1, XDATA, add(CFA_XSP16, literal(-10)))
        CFI VB load(1, XDATA, add(CFA_XSP16, literal(-9)))
        CFI V0 load(1, XDATA, add(CFA_XSP16, literal(-8)))
        CFI V1 load(1, XDATA, add(CFA_XSP16, literal(-7)))
        CFI R7 load(1, XDATA, add(CFA_XSP16, literal(-6)))
        CFI ?RET_LOW load(1, XDATA, add(CFA_XSP16, literal(-5)))
        CFI ?RET_HIGH load(1, XDATA, add(CFA_XSP16, literal(-4)))
        CFI ?BRET_EXT load(1, XDATA, add(CFA_XSP16, literal(-3)))
        CFI DPL0 load(1, XDATA, add(CFA_XSP16, literal(-2)))
        CFI DPH0 load(1, XDATA, add(CFA_XSP16, literal(-1)))
        CFI CFA_SP SP+0
        CFI CFA_XSP16 add(XSP16, 23)
        CFI Block cfiCond4 Using cfiCommon0
        CFI (cfiCond4) NoFunction
        CFI (cfiCond4) Conditional ??CrossCallReturnLabel_3
        CFI (cfiCond4) R6 load(1, XDATA, add(CFA_XSP16, literal(-10)))
        CFI (cfiCond4) VB load(1, XDATA, add(CFA_XSP16, literal(-9)))
        CFI (cfiCond4) V0 load(1, XDATA, add(CFA_XSP16, literal(-8)))
        CFI (cfiCond4) V1 load(1, XDATA, add(CFA_XSP16, literal(-7)))
        CFI (cfiCond4) R7 load(1, XDATA, add(CFA_XSP16, literal(-6)))
        CFI (cfiCond4) ?RET_LOW load(1, XDATA, add(CFA_XSP16, literal(-5)))
        CFI (cfiCond4) ?RET_HIGH load(1, XDATA, add(CFA_XSP16, literal(-4)))
        CFI (cfiCond4) ?BRET_EXT load(1, XDATA, add(CFA_XSP16, literal(-3)))
        CFI (cfiCond4) DPL0 load(1, XDATA, add(CFA_XSP16, literal(-2)))
        CFI (cfiCond4) DPH0 load(1, XDATA, add(CFA_XSP16, literal(-1)))
        CFI (cfiCond4) CFA_SP SP+0
        CFI (cfiCond4) CFA_XSP16 add(XSP16, 23)
        CFI Block cfiCond5 Using cfiCommon0
        CFI (cfiCond5) NoFunction
        CFI (cfiCond5) Conditional ??CrossCallReturnLabel_4
        CFI (cfiCond5) R6 load(1, XDATA, add(CFA_XSP16, literal(-10)))
        CFI (cfiCond5) VB load(1, XDATA, add(CFA_XSP16, literal(-9)))
        CFI (cfiCond5) V0 load(1, XDATA, add(CFA_XSP16, literal(-8)))
        CFI (cfiCond5) V1 load(1, XDATA, add(CFA_XSP16, literal(-7)))
        CFI (cfiCond5) R7 load(1, XDATA, add(CFA_XSP16, literal(-6)))
        CFI (cfiCond5) ?RET_LOW load(1, XDATA, add(CFA_XSP16, literal(-5)))
        CFI (cfiCond5) ?RET_HIGH load(1, XDATA, add(CFA_XSP16, literal(-4)))
        CFI (cfiCond5) ?BRET_EXT load(1, XDATA, add(CFA_XSP16, literal(-3)))
        CFI (cfiCond5) DPL0 load(1, XDATA, add(CFA_XSP16, literal(-2)))
        CFI (cfiCond5) DPH0 load(1, XDATA, add(CFA_XSP16, literal(-1)))
        CFI (cfiCond5) CFA_SP SP+0
        CFI (cfiCond5) CFA_XSP16 add(XSP16, 23)
        CFI Block cfiPicker6 Using cfiCommon1
        CFI (cfiPicker6) NoFunction
        CFI (cfiPicker6) Picker
        MOV     R1,#0x7
        CFI EndBlock cfiCond3
        CFI EndBlock cfiCond4
        CFI EndBlock cfiCond5
        CFI EndBlock cfiPicker6
        REQUIRE ??Subroutine2_0
        ; // Fall through to label ??Subroutine2_0

        RSEG BANKED_CODE:CODE:NOROOT(0)
??Subroutine2_0:
        CFI Block cfiCond7 Using cfiCommon0
        CFI NoFunction
        CFI Conditional ??CrossCallReturnLabel_5
        CFI R6 load(1, XDATA, add(CFA_XSP16, literal(-10)))
        CFI VB load(1, XDATA, add(CFA_XSP16, literal(-9)))
        CFI V0 load(1, XDATA, add(CFA_XSP16, literal(-8)))
        CFI V1 load(1, XDATA, add(CFA_XSP16, literal(-7)))
        CFI R7 load(1, XDATA, add(CFA_XSP16, literal(-6)))
        CFI ?RET_LOW load(1, XDATA, add(CFA_XSP16, literal(-5)))
        CFI ?RET_HIGH load(1, XDATA, add(CFA_XSP16, literal(-4)))
        CFI ?BRET_EXT load(1, XDATA, add(CFA_XSP16, literal(-3)))
        CFI DPL0 load(1, XDATA, add(CFA_XSP16, literal(-2)))
        CFI DPH0 load(1, XDATA, add(CFA_XSP16, literal(-1)))
        CFI CFA_SP SP+0
        CFI CFA_XSP16 add(XSP16, 23)
        CFI Block cfiCond8 Using cfiCommon0
        CFI (cfiCond8) NoFunction
        CFI (cfiCond8) Conditional ??CrossCallReturnLabel_2
        CFI (cfiCond8) R6 load(1, XDATA, add(CFA_XSP16, literal(-10)))
        CFI (cfiCond8) VB load(1, XDATA, add(CFA_XSP16, literal(-9)))
        CFI (cfiCond8) V0 load(1, XDATA, add(CFA_XSP16, literal(-8)))
        CFI (cfiCond8) V1 load(1, XDATA, add(CFA_XSP16, literal(-7)))
        CFI (cfiCond8) R7 load(1, XDATA, add(CFA_XSP16, literal(-6)))
        CFI (cfiCond8) ?RET_LOW load(1, XDATA, add(CFA_XSP16, literal(-5)))
        CFI (cfiCond8) ?RET_HIGH load(1, XDATA, add(CFA_XSP16, literal(-4)))
        CFI (cfiCond8) ?BRET_EXT load(1, XDATA, add(CFA_XSP16, literal(-3)))
        CFI (cfiCond8) DPL0 load(1, XDATA, add(CFA_XSP16, literal(-2)))
        CFI (cfiCond8) DPH0 load(1, XDATA, add(CFA_XSP16, literal(-1)))
        CFI (cfiCond8) CFA_SP SP+0
        CFI (cfiCond8) CFA_XSP16 add(XSP16, 23)
        CFI Block cfiCond9 Using cfiCommon0
        CFI (cfiCond9) NoFunction
        CFI (cfiCond9) Conditional ??CrossCallReturnLabel_3
        CFI (cfiCond9) R6 load(1, XDATA, add(CFA_XSP16, literal(-10)))
        CFI (cfiCond9) VB load(1, XDATA, add(CFA_XSP16, literal(-9)))
        CFI (cfiCond9) V0 load(1, XDATA, add(CFA_XSP16, literal(-8)))
        CFI (cfiCond9) V1 load(1, XDATA, add(CFA_XSP16, literal(-7)))
        CFI (cfiCond9) R7 load(1, XDATA, add(CFA_XSP16, literal(-6)))
        CFI (cfiCond9) ?RET_LOW load(1, XDATA, add(CFA_XSP16, literal(-5)))
        CFI (cfiCond9) ?RET_HIGH load(1, XDATA, add(CFA_XSP16, literal(-4)))
        CFI (cfiCond9) ?BRET_EXT load(1, XDATA, add(CFA_XSP16, literal(-3)))
        CFI (cfiCond9) DPL0 load(1, XDATA, add(CFA_XSP16, literal(-2)))
        CFI (cfiCond9) DPH0 load(1, XDATA, add(CFA_XSP16, literal(-1)))
        CFI (cfiCond9) CFA_SP SP+0
        CFI (cfiCond9) CFA_XSP16 add(XSP16, 23)
        CFI Block cfiCond10 Using cfiCommon0
        CFI (cfiCond10) NoFunction
        CFI (cfiCond10) Conditional ??CrossCallReturnLabel_4
        CFI (cfiCond10) R6 load(1, XDATA, add(CFA_XSP16, literal(-10)))
        CFI (cfiCond10) VB load(1, XDATA, add(CFA_XSP16, literal(-9)))
        CFI (cfiCond10) V0 load(1, XDATA, add(CFA_XSP16, literal(-8)))
        CFI (cfiCond10) V1 load(1, XDATA, add(CFA_XSP16, literal(-7)))
        CFI (cfiCond10) R7 load(1, XDATA, add(CFA_XSP16, literal(-6)))
        CFI (cfiCond10) ?RET_LOW load(1, XDATA, add(CFA_XSP16, literal(-5)))
        CFI (cfiCond10) ?RET_HIGH load(1, XDATA, add(CFA_XSP16, literal(-4)))
        CFI (cfiCond10) ?BRET_EXT load(1, XDATA, add(CFA_XSP16, literal(-3)))
        CFI (cfiCond10) DPL0 load(1, XDATA, add(CFA_XSP16, literal(-2)))
        CFI (cfiCond10) DPH0 load(1, XDATA, add(CFA_XSP16, literal(-1)))
        CFI (cfiCond10) CFA_SP SP+0
        CFI (cfiCond10) CFA_XSP16 add(XSP16, 23)
        CFI Block cfiPicker11 Using cfiCommon1
        CFI (cfiPicker11) NoFunction
        CFI (cfiPicker11) Picker
        LCALL   ??LCD_write_CN_string?relay
        MOV     A,#0x1
        RET
        CFI EndBlock cfiCond7
        CFI EndBlock cfiCond8
        CFI EndBlock cfiCond9
        CFI EndBlock cfiCond10
        CFI EndBlock cfiPicker11

        RSEG BANKED_CODE:CODE:NOROOT(0)
?Subroutine0:
        CFI Block cfiCond12 Using cfiCommon0
        CFI NoFunction
        CFI Conditional ??CrossCallReturnLabel_0
        CFI R6 load(1, XDATA, add(CFA_XSP16, literal(-10)))
        CFI VB load(1, XDATA, add(CFA_XSP16, literal(-9)))
        CFI V0 load(1, XDATA, add(CFA_XSP16, literal(-8)))
        CFI V1 load(1, XDATA, add(CFA_XSP16, literal(-7)))
        CFI R7 load(1, XDATA, add(CFA_XSP16, literal(-6)))
        CFI ?RET_LOW load(1, XDATA, add(CFA_XSP16, literal(-5)))
        CFI ?RET_HIGH load(1, XDATA, add(CFA_XSP16, literal(-4)))
        CFI ?BRET_EXT load(1, XDATA, add(CFA_XSP16, literal(-3)))
        CFI DPL0 load(1, XDATA, add(CFA_XSP16, literal(-2)))
        CFI DPH0 load(1, XDATA, add(CFA_XSP16, literal(-1)))
        CFI CFA_SP SP+0
        CFI CFA_XSP16 add(XSP16, 23)
        CFI Block cfiCond13 Using cfiCommon0
        CFI (cfiCond13) NoFunction
        CFI (cfiCond13) Conditional ??CrossCallReturnLabel_1
        CFI (cfiCond13) R6 load(1, XDATA, add(CFA_XSP16, literal(-10)))
        CFI (cfiCond13) VB load(1, XDATA, add(CFA_XSP16, literal(-9)))
        CFI (cfiCond13) V0 load(1, XDATA, add(CFA_XSP16, literal(-8)))
        CFI (cfiCond13) V1 load(1, XDATA, add(CFA_XSP16, literal(-7)))
        CFI (cfiCond13) R7 load(1, XDATA, add(CFA_XSP16, literal(-6)))
        CFI (cfiCond13) ?RET_LOW load(1, XDATA, add(CFA_XSP16, literal(-5)))
        CFI (cfiCond13) ?RET_HIGH load(1, XDATA, add(CFA_XSP16, literal(-4)))
        CFI (cfiCond13) ?BRET_EXT load(1, XDATA, add(CFA_XSP16, literal(-3)))
        CFI (cfiCond13) DPL0 load(1, XDATA, add(CFA_XSP16, literal(-2)))
        CFI (cfiCond13) DPH0 load(1, XDATA, add(CFA_XSP16, literal(-1)))
        CFI (cfiCond13) CFA_SP SP+0
        CFI (cfiCond13) CFA_XSP16 add(XSP16, 23)
        CFI Block cfiPicker14 Using cfiCommon1
        CFI (cfiPicker14) NoFunction
        CFI (cfiPicker14) Picker
        MOVX    A,@DPTR
        MOV     B,#0xa
        DIV     AB
        MOV     A,B
        ADD     A,#0x30
        RET
        CFI EndBlock cfiCond12
        CFI EndBlock cfiCond13
        CFI EndBlock cfiPicker14

        RSEG XDATA_ID:CODE:NOROOT(0)
`?<Initializer for AppTitle>`:
        DB "Smart Home"

        RSEG BANK_RELAYS:CODE:REORDER:NOROOT(0)
??SampleApp_Init?relay:
        LCALL   ?BDISPATCH
        DATA
        DC24    SampleApp_Init

        RSEG BANK_RELAYS:CODE:REORDER:NOROOT(0)
??SampleApp_ProcessEvent?relay:
        LCALL   ?BDISPATCH
        DATA
        DC24    SampleApp_ProcessEvent

        RSEG BANK_RELAYS:CODE:REORDER:NOROOT(0)
??SensorNode_Send_Message?relay:
        LCALL   ?BDISPATCH
        DATA
        DC24    SensorNode_Send_Message

        RSEG XDATA_ROM_C:CONST:REORDER:NOROOT(0)
        DATA8
`?<Constant "\\316\\302\\266\\310\\243\\272">`:
        DB "\316\302\266\310\243\272"

        RSEG XDATA_ROM_C:CONST:REORDER:NOROOT(0)
        DATA8
`?<Constant "\\241\\346">`:
        DB "\241\346"

        RSEG XDATA_ROM_C:CONST:REORDER:NOROOT(0)
        DATA8
`?<Constant "\\312\\252\\266\\310\\243\\272">`:
        DB "\312\252\266\310\243\272"

        RSEG XDATA_ROM_C:CONST:REORDER:NOROOT(0)
        DATA8
`?<Constant "\\243\\245">`:
        DB "\243\245"

        RSEG XDATA_ROM_C:CONST:REORDER:NOROOT(0)
        DATA8
`?<Constant "\\271\\342\\325\\325\\243\\272">`:
        DB "\271\342\325\325\243\272"

        RSEG XDATA_ROM_C:CONST:REORDER:NOROOT(0)
        DATA8
`?<Constant "\\260\\327\\314\\354">`:
        DB "\260\327\314\354"

        RSEG XDATA_ROM_C:CONST:REORDER:NOROOT(0)
        DATA8
`?<Constant "\\272\\332\\322\\271">`:
        DB "\272\332\322\271"

        RSEG XDATA_ROM_C:CONST:REORDER:NOROOT(0)
        DATA8
`?<Constant "\\272\\354\\315\\342\\243\\272">`:
        DB "\272\354\315\342\243\272"

        RSEG XDATA_ROM_C:CONST:REORDER:NOROOT(0)
        DATA8
`?<Constant "\\323\\320\\310\\313">`:
        DB "\323\320\310\313"

        RSEG XDATA_ROM_C:CONST:REORDER:NOROOT(0)
        DATA8
`?<Constant "\\316\\336\\310\\313">`:
        DB "\316\336\310\313"

        RSEG XDATA_ROM_C:CONST:REORDER:NOROOT(0)
        DATA8
`?<Constant "\\273\\360\\321\\346\\243\\272">`:
        DB "\273\360\321\346\243\272"

        RSEG XDATA_ROM_C:CONST:REORDER:NOROOT(0)
        DATA8
`?<Constant "\\323\\320">`:
        DB "\323\320"

        RSEG XDATA_ROM_C:CONST:REORDER:NOROOT(0)
        DATA8
`?<Constant "\\316\\336">`:
        DB "\316\336"

        END
//  314 #endif
//  315 
//  316 
//  317 
//  318 #if defined (COORDINATOR)
//  319 void Coordinator_Receive_Data(afIncomingMSGPacket_t *pkt)
//  320 {
//  321   uint8 control_cmd[4]; //控制命令，分别为__light,__beep,__motor_dir,__motor_speed的值
//  322   switch(pkt->clusterId)
//  323   {
//  324     case SAMPLEAPP_P2P_CLUSTERID: //协调器收到传感节点的点播数据
//  325       /*将数据转发到PC机*/
//  326       HalUARTWrite(0, pkt->cmd.Data, pkt->cmd.DataLength);
//  327       /*简单的控制算法*/
//  328       //灯光
//  329       if( (pkt->cmd.Data[2] == 0) && (pkt->cmd.Data[3] == 1) ) //黑夜且有人则开灯
//  330       {
//  331         control_cmd[0] = 1;
//  332         light_status = 1;
//  333       }
//  334       else //不满足黑夜且有人的条件，可能是人体红外传感器的探测问题，如果灯已开，延时60s再关
//  335       {
//  336         if( (light_status == 1) && (light_count < 60) )
//  337         {
//  338           light_count++;
//  339           control_cmd[0] = 1;
//  340         }
//  341         else
//  342         {
//  343           light_status = 0;
//  344           light_count = 0;
//  345           control_cmd[0] = 0;
//  346         }
//  347       }
//  348       //蜂鸣器
//  349       if(pkt->cmd.Data[4] == 1) //火焰传感器检测到火焰
//  350       {
//  351         fire_status = 1;
//  352         control_cmd[1] = 1;
//  353       }
//  354       else
//  355       {
//  356         if((fire_status == 1) && (fire_count < 60) ) //连续警报60s
//  357         {
//  358           fire_count++;
//  359           control_cmd[1] = 1;
//  360         }
//  361         else
//  362         {
//  363           fire_status = 0;
//  364           fire_count  = 0;
//  365           control_cmd[1] = 0;
//  366         }
//  367       }
//  368       
//  369       //步进电机
//  370       if(pkt->cmd.Data[0] < 15) //制热
//  371       {
//  372         control_cmd[2] = 1;
//  373         if(pkt->cmd.Data[0] > 10)
//  374           control_cmd[3] = 4;
//  375         else if(pkt->cmd.Data[0] > 5)
//  376           control_cmd[3] = 8;
//  377         else
//  378           control_cmd[3] = 10;
//  379       }
//  380       else if(pkt->cmd.Data[0] > 25) //制冷
//  381       {
//  382         control_cmd[2] = 2;
//  383         if(pkt->cmd.Data[0] <30)
//  384           control_cmd[3] = 4;
//  385         else if(pkt->cmd.Data[0] < 35)
//  386           control_cmd[3] = 8;
//  387         else
//  388           control_cmd[3] = 10;
//  389       }
//  390       else //停转
//  391       {
//  392         control_cmd[2] = 0;
//  393         control_cmd[3] = 0;
//  394       }
//  395 
//  396       /*将操作指令通过广播发送到Actuator Node*/
//  397       AF_DataRequest( &SampleApp_Periodic_DstAddr, &SampleApp_epDesc,
//  398                        SAMPLEAPP_PERIODIC_CLUSTERID,
//  399                        4,
//  400                        control_cmd,
//  401                        &SampleApp_TransID,
//  402                        AF_DISCV_ROUTE,
//  403                        AF_DEFAULT_RADIUS );
//  404       LED2FLIP;
//  405       break;
//  406   }
//  407 }
//  408 #endif
//  409 
//  410 
//  411 
//  412 #if defined (ACTUATOR_NODE)
//  413 void ActuatorNode_Receive_Data(afIncomingMSGPacket_t *pkt)
//  414 {
//  415   uint8 str_speed[3];
//  416 
//  417   switch(pkt->clusterId) //执行器接收到协调器广播的数据
//  418   {
//  419     case SAMPLEAPP_PERIODIC_CLUSTERID:
//  420       /*修改外设控制变量的值，并且在LCD上显示*/
//  421       __light       = pkt->cmd.Data[0];
//  422       __beep        = pkt->cmd.Data[1];
//  423       __motor_dir   = pkt->cmd.Data[2];
//  424       __motor_speed = pkt->cmd.Data[3];
//  425       str_speed[0] = (__motor_speed / 10) + 48;
//  426       str_speed[1] = (__motor_speed % 10) + 48;
//  427       str_speed[2] = '\0';
//  428       //灯光
//  429       LCD_write_CN_string(  7,  50, "灯光：");
//  430       if(__light)
//  431       {
//  432         RelayOn();
//  433         LCD_write_CN_string(49, 50, "开");
//  434       }
//  435       else
//  436       {
//  437         RelayOff();
//  438         LCD_write_CN_string(49, 50, "关");
//  439       }
//  440       //火警
//  441       LCD_write_CN_string(  7,  65, "火警：");
//  442       if(__beep)
//  443       {
//  444         LCD_write_CN_string(49, 65, "开");
//  445         Beep(255); Beep(255); Beep(255); Beep(255); Beep(255);
//  446         Beep(255); Beep(255); Beep(255); Beep(255); Beep(255);
//  447         Beep(255); Beep(255); Beep(255); Beep(255); Beep(255);
//  448         Beep(255); Beep(255); Beep(255); Beep(255); Beep(255);      
//  449       }
//  450       else
//  451       {
//  452         LCD_write_CN_string(49, 65, "关");
//  453       }
//  454       //空调
//  455       LCD_write_CN_string(    7, 80, "空调：");
//  456       if(__motor_dir)
//  457       {
//  458         if(__motor_dir == 1)
//  459           LCD_write_CN_string(49, 80, "制热");
//  460         else
//  461           LCD_write_CN_string(49, 80, "制冷");
//  462       }
//  463       else
//  464       {
//  465         LCD_write_CN_string(  49, 80, "关闭");
//  466       }
//  467       //
//  468       LCD_write_CN_string(7, 95, "功率：");
//  469       LCD_write_EN_string(49, 95, str_speed);
//  470       if(__motor_dir)
//  471       {
//  472         StepMotor(__motor_dir - 1, __motor_speed, 250);
//  473       }
//  474 		
//  475       LED2FLIP;
//  476       break;
//  477       
//  478   }
//  479 }
//  480 #endif
//  481 
//  482 
//  483 
// 
// 725 bytes in segment BANKED_CODE
//  18 bytes in segment BANK_RELAYS
//   1 byte  in segment SFR_AN
//  11 bytes in segment XDATA_I
//  11 bytes in segment XDATA_ID
//  85 bytes in segment XDATA_ROM_C
//  65 bytes in segment XDATA_Z
// 
// 754 bytes of CODE  memory
//  85 bytes of CONST memory
//   0 bytes of DATA  memory (+ 1 byte shared)
//  76 bytes of XDATA memory
//
//Errors: none
//Warnings: 2
