///////////////////////////////////////////////////////////////////////////////
//                                                                            /
// IAR C/C++ Compiler V8.10.3.10338/W32 for 8051        04/Sep/2020  17:56:01 /
// Copyright 2004-2011 IAR Systems AB.                                        /
//                                                                            /
//    Core               =  plain                                             /
//    Code model         =  banked                                            /
//    Data model         =  large                                             /
//    Calling convention =  xdata reentrant                                   /
//    Constant location  =  data_rom                                          /
//    Dptr setup         =  1,16                                              /
//    Source file        =  D:\Github\SmartHome-CC2530\Projects\zstack\Sample /
//                          s\SampleApp\Source\SampleApp.c                    /
//    Command line       =  -f D:\Github\SmartHome-CC2530\Projects\zstack\Sam /
//                          ples\SampleApp\CC2530DB\..\..\..\Tools\CC2530DB\f /
//                          8wEndev.cfg (-DCPU32MHZ -DROOT=__near_func        /
//                          -DMAC_CFG_TX_DATA_MAX=3 -DMAC_CFG_TX_MAX=6        /
//                          -DMAC_CFG_RX_MAX=3) -f D:\Github\SmartHome-CC2530 /
//                          \Projects\zstack\Samples\SampleApp\CC2530DB\..\.. /
//                          \..\Tools\CC2530DB\f8wConfig.cfg (-DZIGBEEPRO     /
//                          -DSECURE=0 -DZG_SECURE_DYNAMIC=0 -DREFLECTOR      /
//                          -DDEFAULT_CHANLIST=0x02000000                     /
//                          -DZDAPP_CONFIG_PAN_ID=0x1234                      /
//                          -DNWK_START_DELAY=100 -DEXTENDED_JOINING_RANDOM_M /
//                          ASK=0x007F -DBEACON_REQUEST_DELAY=100             /
//                          -DBEACON_REQ_DELAY_MASK=0x00FF                    /
//                          -DLINK_STATUS_JITTER_MASK=0x007F                  /
//                          -DROUTE_EXPIRY_TIME=30 -DAPSC_ACK_WAIT_DURATION_P /
//                          OLLED=3000 -DNWK_INDIRECT_MSG_TIMEOUT=7           /
//                          -DMAX_RREQ_ENTRIES=8 -DAPSC_MAX_FRAME_RETRIES=3   /
//                          -DNWK_MAX_DATA_RETRIES=2                          /
//                          -DMAX_POLL_FAILURE_RETRIES=2 -DMAX_BCAST=9        /
//                          -DAPS_MAX_GROUPS=16 -DMAX_RTG_ENTRIES=40          /
//                          -DNWK_MAX_BINDING_ENTRIES=4                       /
//                          -DMAX_BINDING_CLUSTER_IDS=4                       /
//                          "-DDEFAULT_KEY={0x01, 0x03, 0x05, 0x07, 0x09,     /
//                          0x0B, 0x0D, 0x0F, 0x00, 0x02, 0x04, 0x06, 0x08,   /
//                          0x0A, 0x0C, 0x0D}" -DMAC_MAX_FRAME_SIZE=116       /
//                          -DZDNWKMGR_MIN_TRANSMISSIONS=20 "-DCONST=const    /
//                          __code" -DGENERIC=__generic                       /
//                          -DRFD_RCVC_ALWAYS_ON=FALSE -DPOLL_RATE=1000       /
//                          -DQUEUED_POLL_RATE=100 -DRESPONSE_POLL_RATE=100)  /
//                          -DREJOIN_POLL_RATE=440 D:\Github\SmartHome-CC2530 /
//                          \Projects\zstack\Samples\SampleApp\Source\SampleA /
//                          pp.c -D NWK_AUTO_POLL -D ZTOOL_P1 -D MT_TASK -D   /
//                          MT_SYS_FUNC -D MT_ZDO_FUNC -D LCD_SUPPORTED -D    /
//                          ACTUATOR_NODE -lC D:\Github\SmartHome-CC2530\Proj /
//                          ects\zstack\Samples\SampleApp\CC2530DB\ActuatorNo /
//                          de\List\ -lA D:\Github\SmartHome-CC2530\Projects\ /
//                          zstack\Samples\SampleApp\CC2530DB\ActuatorNode\Li /
//                          st\ --diag_suppress Pe001,Pa010 -o                /
//                          D:\Github\SmartHome-CC2530\Projects\zstack\Sample /
//                          s\SampleApp\CC2530DB\ActuatorNode\Obj\ -e         /
//                          --no_code_motion --debug --core=plain             /
//                          --dptr=16,1 --data_model=large                    /
//                          --code_model=banked --calling_convention=xdata_re /
//                          entrant --place_constants=data_rom                /
//                          --nr_virtual_regs 16 -I                           /
//                          D:\Github\SmartHome-CC2530\Projects\zstack\Sample /
//                          s\SampleApp\CC2530DB\ -I                          /
//                          D:\Github\SmartHome-CC2530\Projects\zstack\Sample /
//                          s\SampleApp\CC2530DB\..\Source\ -I                /
//                          D:\Github\SmartHome-CC2530\Projects\zstack\Sample /
//                          s\SampleApp\CC2530DB\..\..\..\ZMain\TI2530DB\ -I  /
//                          D:\Github\SmartHome-CC2530\Projects\zstack\Sample /
//                          s\SampleApp\CC2530DB\..\..\..\..\..\Components\ha /
//                          l\include\ -I D:\Github\SmartHome-CC2530\Projects /
//                          \zstack\Samples\SampleApp\CC2530DB\..\..\..\..\.. /
//                          \Components\hal\target\CC2530EB\ -I               /
//                          D:\Github\SmartHome-CC2530\Projects\zstack\Sample /
//                          s\SampleApp\CC2530DB\..\..\..\..\..\Components\ma /
//                          c\include\ -I D:\Github\SmartHome-CC2530\Projects /
//                          \zstack\Samples\SampleApp\CC2530DB\..\..\..\..\.. /
//                          \Components\mac\high_level\ -I                    /
//                          D:\Github\SmartHome-CC2530\Projects\zstack\Sample /
//                          s\SampleApp\CC2530DB\..\..\..\..\..\Components\ma /
//                          c\low_level\srf04\ -I D:\Github\SmartHome-CC2530\ /
//                          Projects\zstack\Samples\SampleApp\CC2530DB\..\..\ /
//                          ..\..\..\Components\mac\low_level\srf04\single_ch /
//                          ip\ -I D:\Github\SmartHome-CC2530\Projects\zstack /
//                          \Samples\SampleApp\CC2530DB\..\..\..\..\..\Compon /
//                          ents\mt\ -I D:\Github\SmartHome-CC2530\Projects\z /
//                          stack\Samples\SampleApp\CC2530DB\..\..\..\..\..\C /
//                          omponents\osal\include\ -I                        /
//                          D:\Github\SmartHome-CC2530\Projects\zstack\Sample /
//                          s\SampleApp\CC2530DB\..\..\..\..\..\Components\se /
//                          rvices\saddr\ -I D:\Github\SmartHome-CC2530\Proje /
//                          cts\zstack\Samples\SampleApp\CC2530DB\..\..\..\.. /
//                          \..\Components\services\sdata\ -I                 /
//                          D:\Github\SmartHome-CC2530\Projects\zstack\Sample /
//                          s\SampleApp\CC2530DB\..\..\..\..\..\Components\st /
//                          ack\af\ -I D:\Github\SmartHome-CC2530\Projects\zs /
//                          tack\Samples\SampleApp\CC2530DB\..\..\..\..\..\Co /
//                          mponents\stack\nwk\ -I D:\Github\SmartHome-CC2530 /
//                          \Projects\zstack\Samples\SampleApp\CC2530DB\..\.. /
//                          \..\..\..\Components\stack\sapi\ -I               /
//                          D:\Github\SmartHome-CC2530\Projects\zstack\Sample /
//                          s\SampleApp\CC2530DB\..\..\..\..\..\Components\st /
//                          ack\sec\ -I D:\Github\SmartHome-CC2530\Projects\z /
//                          stack\Samples\SampleApp\CC2530DB\..\..\..\..\..\C /
//                          omponents\stack\sys\ -I                           /
//                          D:\Github\SmartHome-CC2530\Projects\zstack\Sample /
//                          s\SampleApp\CC2530DB\..\..\..\..\..\Components\st /
//                          ack\zdo\ -I D:\Github\SmartHome-CC2530\Projects\z /
//                          stack\Samples\SampleApp\CC2530DB\..\..\..\..\..\C /
//                          omponents\zmac\ -I D:\Github\SmartHome-CC2530\Pro /
//                          jects\zstack\Samples\SampleApp\CC2530DB\..\..\..\ /
//                          ..\..\Components\zmac\f8w\ -Ohz                   /
//    List file          =  D:\Github\SmartHome-CC2530\Projects\zstack\Sample /
//                          s\SampleApp\CC2530DB\ActuatorNode\List\SampleApp. /
//                          s51                                               /
//                                                                            /
//                                                                            /
///////////////////////////////////////////////////////////////////////////////

        NAME SampleApp

        RTMODEL "__SystemLibrary", "CLib"
        RTMODEL "__calling_convention", "xdata_reentrant"
        RTMODEL "__code_model", "banked"
        RTMODEL "__core", "plain"
        RTMODEL "__data_model", "large"
        RTMODEL "__dptr_size", "16"
        RTMODEL "__extended_stack", "disabled"
        RTMODEL "__location_for_constants", "data"
        RTMODEL "__number_of_dptrs", "1"
        RTMODEL "__rt_version", "1"

        RSEG DOVERLAY:DATA:NOROOT(0)
        RSEG IOVERLAY:IDATA:NOROOT(0)
        RSEG ISTACK:IDATA:NOROOT(0)
        RSEG PSTACK:XDATA:NOROOT(0)
        RSEG XSTACK:XDATA:NOROOT(0)

        EXTERN ?ALLOC_XSTACK8
        EXTERN ?BANKED_ENTER_XDATA
        EXTERN ?BANKED_LEAVE_XDATA
        EXTERN ?BDISPATCH
        EXTERN ?BRET
        EXTERN ?DEALLOC_XSTACK8
        EXTERN ?V0
        EXTERN ?XSP
        EXTERN ?XSTACK_DISP0_8
        EXTERN __INIT_XDATA_I
        EXTERN __INIT_XDATA_Z

        PUBLIC ??ActuatorNode_Receive_Data?relay
        FUNCTION ??ActuatorNode_Receive_Data?relay,0203H
        PUBLIC ??SampleApp_Init?relay
        FUNCTION ??SampleApp_Init?relay,0203H
        PUBLIC ??SampleApp_ProcessEvent?relay
        FUNCTION ??SampleApp_ProcessEvent?relay,0203H
        PUBLIC ActuatorNode_Receive_Data
        FUNCTION ActuatorNode_Receive_Data,021203H
        ARGFRAME XSTACK, 12, STACK
        ARGFRAME IOVERLAY, 0, STATIC
        ARGFRAME DOVERLAY, 0, STATIC
        LOCFRAME ISTACK, 3, STACK
        LOCFRAME XSTACK, 3, STACK
        PUBLIC AppTitle
        PUBLIC SampleAppFlashCounter
        PUBLIC SampleAppPeriodicCounter
        PUBLIC SampleApp_ClusterList
        PUBLIC SampleApp_Flash_DstAddr
        PUBLIC SampleApp_Group
        PUBLIC SampleApp_Init
        FUNCTION SampleApp_Init,021203H
        ARGFRAME XSTACK, 0, STACK
        LOCFRAME XSTACK, 9, STACK
        PUBLIC SampleApp_NwkState
        PUBLIC SampleApp_P2P_DstAddr
        PUBLIC SampleApp_Periodic_DstAddr
        PUBLIC SampleApp_ProcessEvent
        FUNCTION SampleApp_ProcessEvent,021203H
        ARGFRAME XSTACK, 0, STACK
        LOCFRAME XSTACK, 12, STACK
        PUBLIC SampleApp_SimpleDesc
        PUBLIC SampleApp_TaskID
        PUBLIC SampleApp_TransID
        PUBLIC SampleApp_epDesc
        PUBWEAK _A_P1
        
        CFI Names cfiNames0
        CFI StackFrame CFA_SP SP IDATA
        CFI StackFrame CFA_PSP16 PSP16 XDATA
        CFI StackFrame CFA_XSP16 XSP16 XDATA
        CFI StaticOverlayFrame CFA_IOVERLAY IOVERLAY
        CFI StaticOverlayFrame CFA_DOVERLAY DOVERLAY
        CFI Resource `PSW.CY`:1, `B.BR0`:1, `B.BR1`:1, `B.BR2`:1, `B.BR3`:1
        CFI Resource `B.BR4`:1, `B.BR5`:1, `B.BR6`:1, `B.BR7`:1, `VB.BR8`:1
        CFI Resource `VB.BR9`:1, `VB.BR10`:1, `VB.BR11`:1, `VB.BR12`:1
        CFI Resource `VB.BR13`:1, `VB.BR14`:1, `VB.BR15`:1, VB:8, B:8, A:8
        CFI Resource PSW:8, DPL0:8, DPH0:8, R0:8, R1:8, R2:8, R3:8, R4:8, R5:8
        CFI Resource R6:8, R7:8, V0:8, V1:8, V2:8, V3:8, V4:8, V5:8, V6:8, V7:8
        CFI Resource V8:8, V9:8, V10:8, V11:8, V12:8, V13:8, V14:8, V15:8, SP:8
        CFI Resource PSPH:8, PSPL:8, PSP16:16, XSPH:8, XSPL:8, XSP16:16
        CFI VirtualResource ?RET:24
        CFI Resource ?BRET_EXT:8
        CFI VirtualResource ?RET_HIGH:8, ?RET_LOW:8
        CFI ResourceParts PSP16 PSPH, PSPL
        CFI ResourceParts XSP16 XSPH, XSPL
        CFI ResourceParts ?RET ?BRET_EXT, ?RET_HIGH, ?RET_LOW
        CFI EndNames cfiNames0
        
        CFI Common cfiCommon0 Using cfiNames0
        CFI CodeAlign 1
        CFI DataAlign -1
        CFI ReturnAddress ?RET CODE
        CFI CFA_DOVERLAY Used
        CFI CFA_IOVERLAY Used
        CFI CFA_SP SP+-3
        CFI CFA_PSP16 PSP16+0
        CFI CFA_XSP16 XSP16+0
        CFI `PSW.CY` SameValue
        CFI `B.BR0` SameValue
        CFI `B.BR1` SameValue
        CFI `B.BR2` SameValue
        CFI `B.BR3` SameValue
        CFI `B.BR4` SameValue
        CFI `B.BR5` SameValue
        CFI `B.BR6` SameValue
        CFI `B.BR7` SameValue
        CFI `VB.BR8` SameValue
        CFI `VB.BR9` SameValue
        CFI `VB.BR10` SameValue
        CFI `VB.BR11` SameValue
        CFI `VB.BR12` SameValue
        CFI `VB.BR13` SameValue
        CFI `VB.BR14` SameValue
        CFI `VB.BR15` SameValue
        CFI VB SameValue
        CFI B Undefined
        CFI A Undefined
        CFI PSW SameValue
        CFI DPL0 SameValue
        CFI DPH0 SameValue
        CFI R0 Undefined
        CFI R1 Undefined
        CFI R2 Undefined
        CFI R3 Undefined
        CFI R4 Undefined
        CFI R5 Undefined
        CFI R6 SameValue
        CFI R7 SameValue
        CFI V0 SameValue
        CFI V1 SameValue
        CFI V2 SameValue
        CFI V3 SameValue
        CFI V4 SameValue
        CFI V5 SameValue
        CFI V6 SameValue
        CFI V7 SameValue
        CFI V8 SameValue
        CFI V9 SameValue
        CFI V10 SameValue
        CFI V11 SameValue
        CFI V12 SameValue
        CFI V13 SameValue
        CFI V14 SameValue
        CFI V15 SameValue
        CFI PSPH Undefined
        CFI PSPL Undefined
        CFI XSPH Undefined
        CFI XSPL Undefined
        CFI ?RET Concat
        CFI ?BRET_EXT Frame(CFA_SP, 3)
        CFI ?RET_HIGH Frame(CFA_SP, 2)
        CFI ?RET_LOW Frame(CFA_SP, 1)
        CFI EndCommon cfiCommon0
        
        
        CFI Common cfiCommon1 Using cfiNames0
        CFI CodeAlign 1
        CFI DataAlign -1
        CFI ReturnAddress ?RET CODE
        CFI CFA_DOVERLAY Used
        CFI CFA_IOVERLAY Used
        CFI CFA_SP SP+-2
        CFI CFA_PSP16 PSP16+0
        CFI CFA_XSP16 XSP16+0
        CFI `PSW.CY` SameValue
        CFI `B.BR0` SameValue
        CFI `B.BR1` SameValue
        CFI `B.BR2` SameValue
        CFI `B.BR3` SameValue
        CFI `B.BR4` SameValue
        CFI `B.BR5` SameValue
        CFI `B.BR6` SameValue
        CFI `B.BR7` SameValue
        CFI `VB.BR8` SameValue
        CFI `VB.BR9` SameValue
        CFI `VB.BR10` SameValue
        CFI `VB.BR11` SameValue
        CFI `VB.BR12` SameValue
        CFI `VB.BR13` SameValue
        CFI `VB.BR14` SameValue
        CFI `VB.BR15` SameValue
        CFI VB SameValue
        CFI B SameValue
        CFI A SameValue
        CFI PSW SameValue
        CFI DPL0 SameValue
        CFI DPH0 SameValue
        CFI R0 SameValue
        CFI R1 SameValue
        CFI R2 SameValue
        CFI R3 SameValue
        CFI R4 SameValue
        CFI R5 SameValue
        CFI R6 SameValue
        CFI R7 SameValue
        CFI V0 SameValue
        CFI V1 SameValue
        CFI V2 SameValue
        CFI V3 SameValue
        CFI V4 SameValue
        CFI V5 SameValue
        CFI V6 SameValue
        CFI V7 SameValue
        CFI V8 SameValue
        CFI V9 SameValue
        CFI V10 SameValue
        CFI V11 SameValue
        CFI V12 SameValue
        CFI V13 SameValue
        CFI V14 SameValue
        CFI V15 SameValue
        CFI PSPH Undefined
        CFI PSPL Undefined
        CFI XSPH Undefined
        CFI XSPL Undefined
        CFI ?RET Concat
        CFI ?BRET_EXT SameValue
        CFI ?RET_HIGH Frame(CFA_SP, 2)
        CFI ?RET_LOW Frame(CFA_SP, 1)
        CFI EndCommon cfiCommon1
        
LEDInit             SYMBOL "LEDInit"
BeepInit            SYMBOL "BeepInit"
StepMotorInit       SYMBOL "StepMotorInit"
RelayInit           SYMBOL "RelayInit"
afRegister          SYMBOL "afRegister"
RegisterForKeys     SYMBOL "RegisterForKeys"
osal_msg_receive    SYMBOL "osal_msg_receive"
osal_msg_deallocate SYMBOL "osal_msg_deallocate"
osal_rand           SYMBOL "osal_rand"
osal_start_timerEx  SYMBOL "osal_start_timerEx"
LCD_write_CN_string SYMBOL "LCD_write_CN_string"
RelayOn             SYMBOL "RelayOn"
RelayOff            SYMBOL "RelayOff"
Beep                SYMBOL "Beep"
LCD_write_EN_string SYMBOL "LCD_write_EN_string"
StepMotor           SYMBOL "StepMotor"
??Beep?relay        SYMBOL "?relay", Beep
??BeepInit?relay    SYMBOL "?relay", BeepInit
??LCD_write_CN_string?relay SYMBOL "?relay", LCD_write_CN_string
??LCD_write_EN_string?relay SYMBOL "?relay", LCD_write_EN_string
??LEDInit?relay     SYMBOL "?relay", LEDInit
??RegisterForKeys?relay SYMBOL "?relay", RegisterForKeys
??RelayInit?relay   SYMBOL "?relay", RelayInit
??RelayOff?relay    SYMBOL "?relay", RelayOff
??RelayOn?relay     SYMBOL "?relay", RelayOn
??StepMotor?relay   SYMBOL "?relay", StepMotor
??StepMotorInit?relay SYMBOL "?relay", StepMotorInit
??afRegister?relay  SYMBOL "?relay", afRegister
??osal_msg_deallocate?relay SYMBOL "?relay", osal_msg_deallocate
??osal_msg_receive?relay SYMBOL "?relay", osal_msg_receive
??osal_rand?relay   SYMBOL "?relay", osal_rand
??osal_start_timerEx?relay SYMBOL "?relay", osal_start_timerEx
ActuatorNode_Receive_Data SYMBOL "ActuatorNode_Receive_Data"
??ActuatorNode_Receive_Data?relay SYMBOL "?relay", ActuatorNode_Receive_Data
SampleApp_Init      SYMBOL "SampleApp_Init"
??SampleApp_Init?relay SYMBOL "?relay", SampleApp_Init
SampleApp_ProcessEvent SYMBOL "SampleApp_ProcessEvent"
??SampleApp_ProcessEvent?relay SYMBOL "?relay", SampleApp_ProcessEvent

        EXTERN LEDInit
        FUNCTION LEDInit,0200H
        ARGFRAME ISTACK, 0, STACK
        ARGFRAME PSTACK, 0, STACK
        ARGFRAME XSTACK, 9, STACK
        ARGFRAME IOVERLAY, 0, STATIC
        ARGFRAME DOVERLAY, 0, STATIC
        EXTERN BeepInit
        FUNCTION BeepInit,0200H
        ARGFRAME ISTACK, 0, STACK
        ARGFRAME PSTACK, 0, STACK
        ARGFRAME XSTACK, 9, STACK
        ARGFRAME IOVERLAY, 0, STATIC
        ARGFRAME DOVERLAY, 0, STATIC
        EXTERN StepMotorInit
        FUNCTION StepMotorInit,0200H
        ARGFRAME ISTACK, 0, STACK
        ARGFRAME PSTACK, 0, STACK
        ARGFRAME XSTACK, 9, STACK
        ARGFRAME IOVERLAY, 0, STATIC
        ARGFRAME DOVERLAY, 0, STATIC
        EXTERN RelayInit
        FUNCTION RelayInit,0200H
        ARGFRAME ISTACK, 0, STACK
        ARGFRAME PSTACK, 0, STACK
        ARGFRAME XSTACK, 9, STACK
        ARGFRAME IOVERLAY, 0, STATIC
        ARGFRAME DOVERLAY, 0, STATIC
        EXTERN afRegister
        FUNCTION afRegister,0202H
        ARGFRAME ISTACK, 0, STACK
        ARGFRAME PSTACK, 0, STACK
        ARGFRAME XSTACK, 9, STACK
        ARGFRAME IOVERLAY, 0, STATIC
        ARGFRAME DOVERLAY, 0, STATIC
        EXTERN RegisterForKeys
        FUNCTION RegisterForKeys,0202H
        ARGFRAME ISTACK, 0, STACK
        ARGFRAME PSTACK, 0, STACK
        ARGFRAME XSTACK, 9, STACK
        ARGFRAME IOVERLAY, 0, STATIC
        ARGFRAME DOVERLAY, 0, STATIC
        EXTERN osal_msg_receive
        FUNCTION osal_msg_receive,0202H
        ARGFRAME ISTACK, 0, STACK
        ARGFRAME PSTACK, 0, STACK
        ARGFRAME XSTACK, 12, STACK
        ARGFRAME IOVERLAY, 0, STATIC
        ARGFRAME DOVERLAY, 0, STATIC
        EXTERN osal_msg_deallocate
        FUNCTION osal_msg_deallocate,0202H
        ARGFRAME ISTACK, 0, STACK
        ARGFRAME PSTACK, 0, STACK
        ARGFRAME XSTACK, 12, STACK
        ARGFRAME IOVERLAY, 0, STATIC
        ARGFRAME DOVERLAY, 0, STATIC
        EXTERN osal_rand
        FUNCTION osal_rand,0202H
        ARGFRAME ISTACK, 0, STACK
        ARGFRAME PSTACK, 0, STACK
        ARGFRAME XSTACK, 12, STACK
        ARGFRAME IOVERLAY, 0, STATIC
        ARGFRAME DOVERLAY, 0, STATIC
        EXTERN osal_start_timerEx
        FUNCTION osal_start_timerEx,0202H
        ARGFRAME ISTACK, 0, STACK
        ARGFRAME PSTACK, 0, STACK
        ARGFRAME XSTACK, 12, STACK
        ARGFRAME IOVERLAY, 0, STATIC
        ARGFRAME DOVERLAY, 0, STATIC
        EXTERN LCD_write_CN_string
        FUNCTION LCD_write_CN_string,0202H
        ARGFRAME ISTACK, 2, STACK
        ARGFRAME PSTACK, 0, STACK
        ARGFRAME XSTACK, 3, STACK
        ARGFRAME IOVERLAY, 0, STATIC
        ARGFRAME DOVERLAY, 0, STATIC
        EXTERN RelayOn
        FUNCTION RelayOn,0200H
        ARGFRAME ISTACK, 2, STACK
        ARGFRAME PSTACK, 0, STACK
        ARGFRAME XSTACK, 3, STACK
        ARGFRAME IOVERLAY, 0, STATIC
        ARGFRAME DOVERLAY, 0, STATIC
        EXTERN RelayOff
        FUNCTION RelayOff,0200H
        ARGFRAME ISTACK, 2, STACK
        ARGFRAME PSTACK, 0, STACK
        ARGFRAME XSTACK, 3, STACK
        ARGFRAME IOVERLAY, 0, STATIC
        ARGFRAME DOVERLAY, 0, STATIC
        EXTERN Beep
        FUNCTION Beep,0202H
        ARGFRAME ISTACK, 2, STACK
        ARGFRAME PSTACK, 0, STACK
        ARGFRAME XSTACK, 3, STACK
        ARGFRAME IOVERLAY, 0, STATIC
        ARGFRAME DOVERLAY, 0, STATIC
        EXTERN LCD_write_EN_string
        FUNCTION LCD_write_EN_string,0202H
        ARGFRAME ISTACK, 2, STACK
        ARGFRAME PSTACK, 0, STACK
        ARGFRAME XSTACK, 3, STACK
        ARGFRAME IOVERLAY, 0, STATIC
        ARGFRAME DOVERLAY, 0, STATIC
        EXTERN StepMotor
        FUNCTION StepMotor,0202H
        ARGFRAME ISTACK, 2, STACK
        ARGFRAME PSTACK, 0, STACK
        ARGFRAME XSTACK, 3, STACK
        ARGFRAME IOVERLAY, 0, STATIC
        ARGFRAME DOVERLAY, 0, STATIC
        EXTERN ??Beep?relay
        FUNCTION ??Beep?relay,00H
        EXTERN ??BeepInit?relay
        FUNCTION ??BeepInit?relay,00H
        EXTERN ??LCD_write_CN_string?relay
        FUNCTION ??LCD_write_CN_string?relay,00H
        EXTERN ??LCD_write_EN_string?relay
        FUNCTION ??LCD_write_EN_string?relay,00H
        EXTERN ??LEDInit?relay
        FUNCTION ??LEDInit?relay,00H
        EXTERN ??RegisterForKeys?relay
        FUNCTION ??RegisterForKeys?relay,00H
        EXTERN ??RelayInit?relay
        FUNCTION ??RelayInit?relay,00H
        EXTERN ??RelayOff?relay
        FUNCTION ??RelayOff?relay,00H
        EXTERN ??RelayOn?relay
        FUNCTION ??RelayOn?relay,00H
        EXTERN ??StepMotor?relay
        FUNCTION ??StepMotor?relay,00H
        EXTERN ??StepMotorInit?relay
        FUNCTION ??StepMotorInit?relay,00H
        EXTERN ??afRegister?relay
        FUNCTION ??afRegister?relay,00H
        EXTERN ??osal_msg_deallocate?relay
        FUNCTION ??osal_msg_deallocate?relay,00H
        EXTERN ??osal_msg_receive?relay
        FUNCTION ??osal_msg_receive?relay,00H
        EXTERN ??osal_rand?relay
        FUNCTION ??osal_rand?relay,00H
        EXTERN ??osal_start_timerEx?relay
        FUNCTION ??osal_start_timerEx?relay,00H

// D:\Github\SmartHome-CC2530\Projects\zstack\Samples\SampleApp\Source\SampleApp.c
//    1 /* 这是一份很恶心的代码，一份代码需要实现3个节点的功能，通过COORDINATOR,SENSOR_NODE,ACTUATOR_NODE三个预处理
//    2  * 命令来进行区别。
//    3  * SENSOR_NODE: 定时采集数据，点播发送给协调器
//    4  * COORDINATOR: 接收SENSOR_NODE的数据，通过串口转发给PC机，根据数据产生指令并广播发送给ACTUATOR_NODE
//    5  * ACTUATOR_NODE: 接收COORDINATOR传送的指令，执行相应的动作
//    6 */
//    7 
//    8 #include "OSAL.h"
//    9 #include "ZGlobals.h"
//   10 #include "AF.h"
//   11 #include "aps_groups.h"
//   12 #include "ZDApp.h"
//   13 #include "SampleApp.h"
//   14 #include "SampleAppHw.h"
//   15 #include "OnBoard.h"

        ASEGN SFR_AN:DATA:NOROOT,090H
// union <unnamed> volatile __sfr _A_P1
_A_P1:
        DATA8
        DS 1
//   16 #include "hal_lcd.h"
//   17 #include "hal_led.h"
//   18 #include "hal_key.h"
//   19 #include "MT_UART.h"
//   20 #include "MT_APP.h"
//   21 #include "MT.h"
//   22 
//   23 #include "General.h" //LED驱动
//   24 
//   25 //根据节点不同导入不同的头文件
//   26 #if defined (SENSOR_NODE) //传感节点
//   27   #include "DHT11.h"            //温湿度传感器驱动
//   28   #include "HCSR501.h"          //人体红外传感器驱动
//   29   #include "LightIntensity.h"   //光照传感器驱动
//   30   #include "YL38.h"             //火焰传感器驱动
//   31 #elif defined (ACTUATOR_NODE) //执行节点
//   32   #include "Beep.h"             //蜂鸣器驱动
//   33   #include "Motor.h"            //步进电机驱动
//   34   #include "Relay.h"            //继电器驱动
//   35 #endif
//   36 
//   37 //根据节点不同定义不同的全局变量
//   38 #if defined (ACTUATOR_NODE)

        RSEG XDATA_Z:XDATA:NOROOT(0)
        DATA8
//   39   static uint8 __light;       //灯，1：亮，0：灭
__light:
        DS 1
        REQUIRE __INIT_XDATA_Z

        RSEG XDATA_Z:XDATA:NOROOT(0)
        DATA8
//   40   static uint8 __beep;        //蜂鸣器，1：响，0：不响
__beep:
        DS 1
        REQUIRE __INIT_XDATA_Z

        RSEG XDATA_Z:XDATA:NOROOT(0)
        DATA8
//   41   static uint8 __motor_dir;   //电机转向，0：不转，1：顺时针，2：逆时针
__motor_dir:
        DS 1
        REQUIRE __INIT_XDATA_Z

        RSEG XDATA_Z:XDATA:NOROOT(0)
        DATA8
//   42   static uint8 __motor_speed; //电机转速，[1,10]
__motor_speed:
        DS 1
        REQUIRE __INIT_XDATA_Z
//   43 #elif defined (COORDINATOR)
//   44   static uint8 light_status;  //用于记录灯光的状态
//   45   static uint8 light_count;   //用于灯光的延时熄灭
//   46   static uint8 fire_status;   //用于记录火灾警报的状态
//   47   static uint8 fire_count;    //用于火灾警报的鸣响延时
//   48 #endif
//   49 
//   50 
//   51 
//   52 

        RSEG XDATA_I:XDATA:NOROOT(0)
//   53 uint8 AppTitle[] = "Smart Home"; //应用程序名称
AppTitle:
        DATA8
        DS 11
        REQUIRE `?<Initializer for AppTitle>`
        REQUIRE __INIT_XDATA_I
//   54 

        RSEG XDATA_ROM_C:CONST:REORDER:NOROOT(0)
        DATA8
//   55 const cId_t SampleApp_ClusterList[SAMPLEAPP_MAX_CLUSTERS] =
SampleApp_ClusterList:
        DATA16
        DW 1
        DW 2
        DW 3
//   56 {
//   57   SAMPLEAPP_PERIODIC_CLUSTERID,
//   58   SAMPLEAPP_FLASH_CLUSTERID,
//   59   SAMPLEAPP_P2P_CLUSTERID
//   60 };
//   61 

        RSEG XDATA_ROM_C:CONST:REORDER:NOROOT(0)
        DATA8
//   62 const SimpleDescriptionFormat_t SampleApp_SimpleDesc =
SampleApp_SimpleDesc:
        DB 20
        DATA16
        DW 3848
        DW 1
        DATA8
        DB 0
        DB 3
        DATA16
        DW SampleApp_ClusterList
        DATA8
        DB 3
        DATA16
        DW SampleApp_ClusterList
//   63 {
//   64   SAMPLEAPP_ENDPOINT,              //  int Endpoint;
//   65   SAMPLEAPP_PROFID,                //  uint16 AppProfId[2];
//   66   SAMPLEAPP_DEVICEID,              //  uint16 AppDeviceId[2];
//   67   SAMPLEAPP_DEVICE_VERSION,        //  int   AppDevVer:4;
//   68   SAMPLEAPP_FLAGS,                 //  int   AppFlags:4;
//   69   SAMPLEAPP_MAX_CLUSTERS,          //  uint8  AppNumInClusters;
//   70   (cId_t *)SampleApp_ClusterList,  //  uint8 *pAppInClusterList;
//   71   SAMPLEAPP_MAX_CLUSTERS,          //  uint8  AppNumInClusters;
//   72   (cId_t *)SampleApp_ClusterList   //  uint8 *pAppInClusterList;
//   73 };
//   74 

        RSEG XDATA_Z:XDATA:NOROOT(0)
        DATA8
//   75 endPointDesc_t SampleApp_epDesc;
SampleApp_epDesc:
        DS 6
        REQUIRE __INIT_XDATA_Z
//   76 

        RSEG XDATA_Z:XDATA:NOROOT(0)
        DATA8
//   77 uint8 SampleApp_TaskID;   // Task ID for internal task/event processing
SampleApp_TaskID:
        DS 1
        REQUIRE __INIT_XDATA_Z
//   78                           // This variable will be received when
//   79                           // SampleApp_Init() is called.

        RSEG XDATA_Z:XDATA:NOROOT(0)
        DATA8
//   80 devStates_t SampleApp_NwkState;
SampleApp_NwkState:
        DS 1
        REQUIRE __INIT_XDATA_Z
//   81 

        RSEG XDATA_Z:XDATA:NOROOT(0)
        DATA8
//   82 uint8 SampleApp_TransID;  // This is the unique message ID (counter)
SampleApp_TransID:
        DS 1
        REQUIRE __INIT_XDATA_Z
//   83 

        RSEG XDATA_Z:XDATA:NOROOT(0)
        DATA8
//   84 afAddrType_t SampleApp_Periodic_DstAddr; //广播
SampleApp_Periodic_DstAddr:
        DS 12
        REQUIRE __INIT_XDATA_Z

        RSEG XDATA_Z:XDATA:NOROOT(0)
        DATA8
//   85 afAddrType_t SampleApp_Flash_DstAddr;    //组播
SampleApp_Flash_DstAddr:
        DS 12
        REQUIRE __INIT_XDATA_Z

        RSEG XDATA_Z:XDATA:NOROOT(0)
        DATA8
//   86 afAddrType_t SampleApp_P2P_DstAddr;      //点播
SampleApp_P2P_DstAddr:
        DS 12
        REQUIRE __INIT_XDATA_Z
//   87 

        RSEG XDATA_Z:XDATA:NOROOT(0)
        DATA8
//   88 aps_Group_t SampleApp_Group;
SampleApp_Group:
        DS 18
        REQUIRE __INIT_XDATA_Z

        RSEG XDATA_Z:XDATA:NOROOT(0)
        DATA8
//   89 uint8 SampleAppPeriodicCounter = 0;
SampleAppPeriodicCounter:
        DS 1
        REQUIRE __INIT_XDATA_Z

        RSEG XDATA_Z:XDATA:NOROOT(0)
        DATA8
//   90 uint8 SampleAppFlashCounter = 0;
SampleAppFlashCounter:
        DS 1
        REQUIRE __INIT_XDATA_Z
//   91 
//   92 
//   93 void SampleApp_SendFlashMessage( uint16 flashTime );
//   94 
//   95 #if defined (SENSOR_NODE)
//   96   void SensorNode_Send_Message(void);
//   97 #elif defined (COORDINATOR)
//   98   void Coordinator_Receive_Data(afIncomingMSGPacket_t *pckt);
//   99 #elif defined (ACTUATOR_NODE)
//  100   void ActuatorNode_Receive_Data(afIncomingMSGPacket_t *pckt);
//  101 #endif
//  102 
//  103 

        RSEG BANKED_CODE:CODE:NOROOT(0)
//  104 void SampleApp_Init( uint8 task_id )
SampleApp_Init:
        CFI Block cfiBlock0 Using cfiCommon0
        CFI Function SampleApp_Init
        CODE
//  105 { 
        FUNCALL SampleApp_Init, LEDInit
        LOCFRAME ISTACK, 0, STACK
        LOCFRAME PSTACK, 0, STACK
        LOCFRAME XSTACK, 9, STACK
        LOCFRAME IOVERLAY, 0, STATIC
        LOCFRAME DOVERLAY, 0, STATIC
        ARGFRAME ISTACK, 0, STACK
        ARGFRAME PSTACK, 0, STACK
        ARGFRAME XSTACK, 9, STACK
        ARGFRAME IOVERLAY, 0, STATIC
        ARGFRAME DOVERLAY, 0, STATIC
        FUNCALL SampleApp_Init, BeepInit
        LOCFRAME ISTACK, 0, STACK
        LOCFRAME PSTACK, 0, STACK
        LOCFRAME XSTACK, 9, STACK
        LOCFRAME IOVERLAY, 0, STATIC
        LOCFRAME DOVERLAY, 0, STATIC
        ARGFRAME ISTACK, 0, STACK
        ARGFRAME PSTACK, 0, STACK
        ARGFRAME XSTACK, 9, STACK
        ARGFRAME IOVERLAY, 0, STATIC
        ARGFRAME DOVERLAY, 0, STATIC
        FUNCALL SampleApp_Init, StepMotorInit
        LOCFRAME ISTACK, 0, STACK
        LOCFRAME PSTACK, 0, STACK
        LOCFRAME XSTACK, 9, STACK
        LOCFRAME IOVERLAY, 0, STATIC
        LOCFRAME DOVERLAY, 0, STATIC
        ARGFRAME ISTACK, 0, STACK
        ARGFRAME PSTACK, 0, STACK
        ARGFRAME XSTACK, 9, STACK
        ARGFRAME IOVERLAY, 0, STATIC
        ARGFRAME DOVERLAY, 0, STATIC
        FUNCALL SampleApp_Init, RelayInit
        LOCFRAME ISTACK, 0, STACK
        LOCFRAME PSTACK, 0, STACK
        LOCFRAME XSTACK, 9, STACK
        LOCFRAME IOVERLAY, 0, STATIC
        LOCFRAME DOVERLAY, 0, STATIC
        ARGFRAME ISTACK, 0, STACK
        ARGFRAME PSTACK, 0, STACK
        ARGFRAME XSTACK, 9, STACK
        ARGFRAME IOVERLAY, 0, STATIC
        ARGFRAME DOVERLAY, 0, STATIC
        FUNCALL SampleApp_Init, afRegister
        LOCFRAME ISTACK, 0, STACK
        LOCFRAME PSTACK, 0, STACK
        LOCFRAME XSTACK, 9, STACK
        LOCFRAME IOVERLAY, 0, STATIC
        LOCFRAME DOVERLAY, 0, STATIC
        ARGFRAME ISTACK, 0, STACK
        ARGFRAME PSTACK, 0, STACK
        ARGFRAME XSTACK, 9, STACK
        ARGFRAME IOVERLAY, 0, STATIC
        ARGFRAME DOVERLAY, 0, STATIC
        FUNCALL SampleApp_Init, RegisterForKeys
        LOCFRAME ISTACK, 0, STACK
        LOCFRAME PSTACK, 0, STACK
        LOCFRAME XSTACK, 9, STACK
        LOCFRAME IOVERLAY, 0, STATIC
        LOCFRAME DOVERLAY, 0, STATIC
        ARGFRAME ISTACK, 0, STACK
        ARGFRAME PSTACK, 0, STACK
        ARGFRAME XSTACK, 9, STACK
        ARGFRAME IOVERLAY, 0, STATIC
        ARGFRAME DOVERLAY, 0, STATIC
        MOV     A,#-0x9
        LCALL   ?BANKED_ENTER_XDATA
        CFI DPH0 load(1, XDATA, add(CFA_XSP16, literal(-1)))
        CFI DPL0 load(1, XDATA, add(CFA_XSP16, literal(-2)))
        CFI ?BRET_EXT load(1, XDATA, add(CFA_XSP16, literal(-3)))
        CFI ?RET_HIGH load(1, XDATA, add(CFA_XSP16, literal(-4)))
        CFI ?RET_LOW load(1, XDATA, add(CFA_XSP16, literal(-5)))
        CFI R7 load(1, XDATA, add(CFA_XSP16, literal(-6)))
        CFI V0 load(1, XDATA, add(CFA_XSP16, literal(-7)))
        CFI VB load(1, XDATA, add(CFA_XSP16, literal(-8)))
        CFI R6 load(1, XDATA, add(CFA_XSP16, literal(-9)))
        CFI CFA_SP SP+0
        CFI CFA_XSP16 add(XSP16, 9)
        ; Saved register size: 9
        ; Auto size: 0
        MOV     A,R1
//  106   SampleApp_TaskID = task_id;
        MOV     DPTR,#SampleApp_TaskID
        MOVX    @DPTR,A
//  107   SampleApp_NwkState = DEV_INIT;
        MOV     DPTR,#SampleApp_NwkState
        MOV     A,#0x1
        MOVX    @DPTR,A
//  108   SampleApp_TransID = 0;
        MOV     DPTR,#SampleApp_TransID
        CLR     A
        MOVX    @DPTR,A
//  109   
//  110 #if defined(COORDINATOR)
//  111   /*串口初始化*/
//  112   MT_UartInit();                  //串口初始化
//  113   MT_UartRegisterTaskID(task_id); //注册串口任务
//  114   HalUARTWrite(0, "uart init\n", osal_strlen("uart init\n"));
//  115   /*LED初始化*/
//  116   LEDInit();
//  117   /*灯光变量初始化*/
//  118   light_status = 0;
//  119   light_count  = 0;
//  120   fire_status  = 0;
//  121   fire_count   = 0;
//  122 #endif
//  123 
//  124 #if defined (SENSOR_NODE)
//  125   LEDInit();
//  126   DHT11Init();
//  127 #endif
//  128 
//  129 #if defined (ACTUATOR_NODE)
//  130   LEDInit();
        ; Setup parameters for call to function LEDInit
        LCALL   ??LEDInit?relay
//  131   BeepInit();
        ; Setup parameters for call to function BeepInit
        LCALL   ??BeepInit?relay
//  132   StepMotorInit();
        ; Setup parameters for call to function StepMotorInit
        LCALL   ??StepMotorInit?relay
//  133   RelayInit();
        ; Setup parameters for call to function RelayInit
        LCALL   ??RelayInit?relay
//  134 #endif
//  135 
//  136 
//  137 #if defined ( BUILD_ALL_DEVICES )
//  138   if ( readCoordinatorJumper() )
//  139     zgDeviceLogicalType = ZG_DEVICETYPE_COORDINATOR;
//  140   else
//  141     zgDeviceLogicalType = ZG_DEVICETYPE_ROUTER;
//  142 #endif // BUILD_ALL_DEVICES
//  143 
//  144 #if defined ( HOLD_AUTO_START )
//  145   ZDOInitDevice(0);
//  146 #endif
//  147 
//  148   /*广播配置*/ 
//  149   SampleApp_Periodic_DstAddr.addrMode = (afAddrMode_t)AddrBroadcast;
        MOV     DPTR,#SampleApp_Periodic_DstAddr + 8
        MOV     A,#0xf
        MOVX    @DPTR,A
//  150   SampleApp_Periodic_DstAddr.endPoint = SAMPLEAPP_ENDPOINT;
        INC     DPTR
        MOV     A,#0x14
        MOVX    @DPTR,A
//  151   SampleApp_Periodic_DstAddr.addr.shortAddr = 0xFFFF;
        MOV     DPTR,#SampleApp_Periodic_DstAddr
        MOV     A,#-0x1
        MOVX    @DPTR,A
        INC     DPTR
        MOVX    @DPTR,A
//  152   
//  153   /*点播配置*/
//  154   SampleApp_P2P_DstAddr.addrMode = (afAddrMode_t)Addr16Bit;  
        MOV     DPTR,#SampleApp_P2P_DstAddr + 8
        MOV     A,#0x2
        MOVX    @DPTR,A
//  155   SampleApp_P2P_DstAddr.endPoint = SAMPLEAPP_ENDPOINT; 
        INC     DPTR
        MOV     A,#0x14
        MOVX    @DPTR,A
//  156   SampleApp_P2P_DstAddr.addr.shortAddr = 0x0000;            
        MOV     DPTR,#SampleApp_P2P_DstAddr
        CLR     A
        MOVX    @DPTR,A
        INC     DPTR
        MOVX    @DPTR,A
//  157 
//  158   /*端点配置*/
//  159   SampleApp_epDesc.endPoint = SAMPLEAPP_ENDPOINT;
        MOV     DPTR,#SampleApp_epDesc
        MOV     A,#0x14
        MOVX    @DPTR,A
//  160   SampleApp_epDesc.task_id = &SampleApp_TaskID;
        INC     DPTR
        MOV     A,#SampleApp_TaskID & 0xff
        MOVX    @DPTR,A
        INC     DPTR
        MOV     A,#(SampleApp_TaskID >> 8) & 0xff
        MOVX    @DPTR,A
//  161   SampleApp_epDesc.simpleDesc
//  162             = (SimpleDescriptionFormat_t *)&SampleApp_SimpleDesc;
        INC     DPTR
        MOV     A,#SampleApp_SimpleDesc & 0xff
        MOVX    @DPTR,A
        INC     DPTR
        MOV     A,#(SampleApp_SimpleDesc >> 8) & 0xff
        MOVX    @DPTR,A
//  163   SampleApp_epDesc.latencyReq = noLatencyReqs;
        INC     DPTR
        CLR     A
        MOVX    @DPTR,A
//  164 
//  165   // Register the endpoint description with the AF
//  166   afRegister( &SampleApp_epDesc );
        ; Setup parameters for call to function afRegister
        MOV     R2,#SampleApp_epDesc & 0xff
        MOV     R3,#(SampleApp_epDesc >> 8) & 0xff
        LCALL   ??afRegister?relay
//  167 
//  168   // Register for all key events - This app will handle all key events
//  169   RegisterForKeys( SampleApp_TaskID );
        ; Setup parameters for call to function RegisterForKeys
        MOV     DPTR,#SampleApp_TaskID
        MOVX    A,@DPTR
        MOV     R1,A
        LCALL   ??RegisterForKeys?relay
//  170 }
        MOV     R7,#0x1
        LJMP    ?BANKED_LEAVE_XDATA
        CFI EndBlock cfiBlock0
//  171 
//  172 

        RSEG BANKED_CODE:CODE:NOROOT(0)
//  173 uint16 SampleApp_ProcessEvent( uint8 task_id, uint16 events )
SampleApp_ProcessEvent:
        CFI Block cfiBlock1 Using cfiCommon0
        CFI Function SampleApp_ProcessEvent
        CODE
//  174 {
        FUNCALL SampleApp_ProcessEvent, osal_msg_receive
        LOCFRAME ISTACK, 0, STACK
        LOCFRAME PSTACK, 0, STACK
        LOCFRAME XSTACK, 12, STACK
        LOCFRAME IOVERLAY, 0, STATIC
        LOCFRAME DOVERLAY, 0, STATIC
        ARGFRAME ISTACK, 0, STACK
        ARGFRAME PSTACK, 0, STACK
        ARGFRAME XSTACK, 12, STACK
        ARGFRAME IOVERLAY, 0, STATIC
        ARGFRAME DOVERLAY, 0, STATIC
        FUNCALL SampleApp_ProcessEvent, osal_msg_deallocate
        LOCFRAME ISTACK, 0, STACK
        LOCFRAME PSTACK, 0, STACK
        LOCFRAME XSTACK, 12, STACK
        LOCFRAME IOVERLAY, 0, STATIC
        LOCFRAME DOVERLAY, 0, STATIC
        ARGFRAME ISTACK, 0, STACK
        ARGFRAME PSTACK, 0, STACK
        ARGFRAME XSTACK, 12, STACK
        ARGFRAME IOVERLAY, 0, STATIC
        ARGFRAME DOVERLAY, 0, STATIC
        FUNCALL SampleApp_ProcessEvent, osal_msg_receive
        LOCFRAME ISTACK, 0, STACK
        LOCFRAME PSTACK, 0, STACK
        LOCFRAME XSTACK, 12, STACK
        LOCFRAME IOVERLAY, 0, STATIC
        LOCFRAME DOVERLAY, 0, STATIC
        ARGFRAME ISTACK, 0, STACK
        ARGFRAME PSTACK, 0, STACK
        ARGFRAME XSTACK, 12, STACK
        ARGFRAME IOVERLAY, 0, STATIC
        ARGFRAME DOVERLAY, 0, STATIC
        FUNCALL SampleApp_ProcessEvent, ActuatorNode_Receive_Data
        LOCFRAME ISTACK, 0, STACK
        LOCFRAME PSTACK, 0, STACK
        LOCFRAME XSTACK, 12, STACK
        LOCFRAME IOVERLAY, 0, STATIC
        LOCFRAME DOVERLAY, 0, STATIC
        ARGFRAME ISTACK, 0, STACK
        ARGFRAME PSTACK, 0, STACK
        ARGFRAME XSTACK, 12, STACK
        ARGFRAME IOVERLAY, 0, STATIC
        ARGFRAME DOVERLAY, 0, STATIC
        FUNCALL SampleApp_ProcessEvent, osal_rand
        LOCFRAME ISTACK, 0, STACK
        LOCFRAME PSTACK, 0, STACK
        LOCFRAME XSTACK, 12, STACK
        LOCFRAME IOVERLAY, 0, STATIC
        LOCFRAME DOVERLAY, 0, STATIC
        ARGFRAME ISTACK, 0, STACK
        ARGFRAME PSTACK, 0, STACK
        ARGFRAME XSTACK, 12, STACK
        ARGFRAME IOVERLAY, 0, STATIC
        ARGFRAME DOVERLAY, 0, STATIC
        FUNCALL SampleApp_ProcessEvent, osal_start_timerEx
        LOCFRAME ISTACK, 0, STACK
        LOCFRAME PSTACK, 0, STACK
        LOCFRAME XSTACK, 12, STACK
        LOCFRAME IOVERLAY, 0, STATIC
        LOCFRAME DOVERLAY, 0, STATIC
        ARGFRAME ISTACK, 0, STACK
        ARGFRAME PSTACK, 0, STACK
        ARGFRAME XSTACK, 12, STACK
        ARGFRAME IOVERLAY, 0, STATIC
        ARGFRAME DOVERLAY, 0, STATIC
        MOV     A,#-0xc
        LCALL   ?BANKED_ENTER_XDATA
        CFI DPH0 load(1, XDATA, add(CFA_XSP16, literal(-1)))
        CFI DPL0 load(1, XDATA, add(CFA_XSP16, literal(-2)))
        CFI ?BRET_EXT load(1, XDATA, add(CFA_XSP16, literal(-3)))
        CFI ?RET_HIGH load(1, XDATA, add(CFA_XSP16, literal(-4)))
        CFI ?RET_LOW load(1, XDATA, add(CFA_XSP16, literal(-5)))
        CFI R7 load(1, XDATA, add(CFA_XSP16, literal(-6)))
        CFI V3 load(1, XDATA, add(CFA_XSP16, literal(-7)))
        CFI V2 load(1, XDATA, add(CFA_XSP16, literal(-8)))
        CFI V1 load(1, XDATA, add(CFA_XSP16, literal(-9)))
        CFI V0 load(1, XDATA, add(CFA_XSP16, literal(-10)))
        CFI VB load(1, XDATA, add(CFA_XSP16, literal(-11)))
        CFI R6 load(1, XDATA, add(CFA_XSP16, literal(-12)))
        CFI CFA_SP SP+0
        CFI CFA_XSP16 add(XSP16, 12)
        ; Saved register size: 12
        ; Auto size: 0
        MOV     ?V0 + 0,R2
        MOV     ?V0 + 1,R3
//  175   afIncomingMSGPacket_t *MSGpkt;
//  176   (void)task_id;  // Intentionally unreferenced parameter
//  177 
//  178   if ( events & SYS_EVENT_MSG )
        MOV     A,R3
        ANL     A,#0x80
        JZ      ??SampleApp_ProcessEvent_0
//  179   {
//  180     MSGpkt = (afIncomingMSGPacket_t *)osal_msg_receive( SampleApp_TaskID );
        ; Setup parameters for call to function osal_msg_receive
        SJMP    ??SampleApp_ProcessEvent_1
//  181     while ( MSGpkt )
//  182     {
//  183       switch ( MSGpkt->hdr.event )
//  184       {
//  185         case AF_INCOMING_MSG_CMD:
//  186           #if defined (COORDINATOR) //协调器接收SENSOR_NODE的数据
//  187             Coordinator_Receive_Data(MSGpkt);
//  188           #elif defined (ACTUATOR_NODE) //ACTUATOR_NODE接收协调器的指令
//  189             ActuatorNode_Receive_Data(MSGpkt);
//  190           #endif
//  191           break;
//  192 
//  193         case ZDO_STATE_CHANGE:
//  194           SampleApp_NwkState = (devStates_t)(MSGpkt->hdr.status);
??SampleApp_ProcessEvent_2:
        INC     DPTR
        MOVX    A,@DPTR
        MOV     DPTR,#SampleApp_NwkState
        MOVX    @DPTR,A
//  195           if ((SampleApp_NwkState == DEV_END_DEVICE) )
//  196           {
//  197           #if defined (SENSOR_NODE) //只有传感节点需要定期发送数据
//  198             //启动定时器，每隔1s采集一次数据并发送
//  199             osal_start_timerEx( SampleApp_TaskID,
//  200                               SAMPLEAPP_SEND_PERIODIC_MSG_EVT,
//  201                               SAMPLEAPP_SEND_PERIODIC_MSG_TIMEOUT );
//  202 
//  203           #endif
//  204           }
//  205           else
//  206           {
//  207             // Device is no longer in the network
//  208           }
//  209           break;
//  210 
//  211         default:
//  212           break;
//  213       }
//  214 
//  215       // Release the memory
//  216       osal_msg_deallocate( (uint8 *)MSGpkt );
??SampleApp_ProcessEvent_3:
        ; Setup parameters for call to function osal_msg_deallocate
        MOV     A,R6
        MOV     R2,A
        MOV     A,R7
        MOV     R3,A
        LCALL   ??osal_msg_deallocate?relay
//  217 
//  218       // Next - if one is available
//  219       MSGpkt = (afIncomingMSGPacket_t *)osal_msg_receive( SampleApp_TaskID );
        ; Setup parameters for call to function osal_msg_receive
??SampleApp_ProcessEvent_1:
        MOV     DPTR,#SampleApp_TaskID
        MOVX    A,@DPTR
        MOV     R1,A
        LCALL   ??osal_msg_receive?relay
        MOV     ?V0 + 2,R2
        MOV     ?V0 + 3,R3
        MOV     R6,?V0 + 2
        MOV     R7,?V0 + 3
        MOV     A,R6
        ORL     A,R7
        JZ      ??SampleApp_ProcessEvent_4
        MOV     DPL,R6
        MOV     DPH,R7
        MOVX    A,@DPTR
        ADD     A,#-0x1a
        JZ      ??SampleApp_ProcessEvent_5
        ADD     A,#0x49
        JZ      ??SampleApp_ProcessEvent_2
        SJMP    ??SampleApp_ProcessEvent_3
??SampleApp_ProcessEvent_5:
        ; Setup parameters for call to function ActuatorNode_Receive_Data
        MOV     A,R6
        MOV     R2,A
        MOV     A,R7
        MOV     R3,A
        LCALL   ??ActuatorNode_Receive_Data?relay
        SJMP    ??SampleApp_ProcessEvent_3
//  220     }
//  221 
//  222     // return unprocessed events
//  223     return (events ^ SYS_EVENT_MSG);
??SampleApp_ProcessEvent_4:
        MOV     R2,?V0 + 0
        MOV     A,?V0 + 1
        XRL     A,#0x80
        MOV     R3,A
        SJMP    ??SampleApp_ProcessEvent_6
//  224   }
//  225 
//  226   if ( events & SAMPLEAPP_SEND_PERIODIC_MSG_EVT )
??SampleApp_ProcessEvent_0:
        MOV     A,R2
        MOV     C,0xE0 /* A   */.0
        JNC     ??SampleApp_ProcessEvent_7
//  227   {
//  228     //只有SensorNode主动发送数据
//  229   #if defined (SENSOR_NODE)
//  230     SensorNode_Send_Message();
//  231   #endif
//  232     // Setup to send message again in normal period (+ a little jitter)
//  233     osal_start_timerEx( SampleApp_TaskID, SAMPLEAPP_SEND_PERIODIC_MSG_EVT,
//  234         (SAMPLEAPP_SEND_PERIODIC_MSG_TIMEOUT + (osal_rand() & 0x00FF)) );
        ; Setup parameters for call to function osal_rand
        LCALL   ??osal_rand?relay
        ; Setup parameters for call to function osal_start_timerEx
        MOV     A,R2
        ADD     A,#-0x18
        MOV     R4,A
        CLR     A
        ADDC    A,#0x3
        MOV     R5,A
        MOV     R2,#0x1
        MOV     R3,#0x0
        MOV     DPTR,#SampleApp_TaskID
        MOVX    A,@DPTR
        MOV     R1,A
        LCALL   ??osal_start_timerEx?relay
//  235 
//  236     // return unprocessed events
//  237     return (events ^ SAMPLEAPP_SEND_PERIODIC_MSG_EVT);
        MOV     A,?V0 + 0
        XRL     A,#0x1
        MOV     R2,A
        MOV     R3,?V0 + 1
        SJMP    ??SampleApp_ProcessEvent_6
//  238   }
//  239 
//  240   // Discard unknown events
//  241   return 0;
??SampleApp_ProcessEvent_7:
        MOV     R2,#0x0
        MOV     R3,#0x0
??SampleApp_ProcessEvent_6:
        MOV     R7,#0x4
        LJMP    ?BANKED_LEAVE_XDATA
        CFI EndBlock cfiBlock1
//  242 }
//  243 
//  244 
//  245 #if defined (SENSOR_NODE)
//  246 void SensorNode_Send_Message( void )
//  247 {
//  248   uint8 temp,humid,light,human,flame;  //温度、湿度、光照、人体红外、火焰
//  249   char str_temp[3];             //2个字符的温度显示数据
//  250   char str_humid[3];            //2个字符的湿度显示数据
//  251   uint8 msg[5];                  //通过无线发送的数据
//  252 
//  253 
//  254   DHT11(&temp, &humid); //获取温湿度
//  255   light = LightOn();    //获取光照强度
//  256   human = HCSR501On();  //获取人体红外
//  257   flame = YL38On();     //获取火焰
//  258   
//  259   /*输出到LCD显示*/
//  260   Color    = BLACK;
//  261   Color_BK = WHITE;
//  262   //温度
//  263   str_temp[0] = (temp / 10) + 48;  //温度十位
//  264   str_temp[1] = (temp % 10) + 48;  //温度个位
//  265   str_temp[2] = '\0';
//  266   LCD_write_CN_string(7,  50, "温度：");
//  267   LCD_write_EN_string(49, 50, str_temp);
//  268   LCD_write_CN_string(63, 50, "℃");
//  269   //湿度
//  270   str_humid[0] = (humid / 10) + 48;  //湿度十位
//  271   str_humid[1] = (humid % 10) + 48;  //湿度个位
//  272   str_humid[2] = '\0';
//  273   LCD_write_CN_string(7,  65, "湿度：");     
//  274   LCD_write_EN_string(49, 65, str_humid );
//  275   LCD_write_CN_string(63, 65, "％");
//  276   //光照
//  277   LCD_write_CN_string(7, 80, "光照：");
//  278   if(light == 1)
//  279     LCD_write_CN_string(49, 80, "白天");
//  280   else 
//  281     LCD_write_CN_string(49, 80, "黑夜");
//  282   //人体红外
//  283   LCD_write_CN_string(7,    95, "红外：");
//  284   if(human == 1)
//  285     LCD_write_CN_string(49, 95, "有人");
//  286   else
//  287     LCD_write_CN_string(49, 95, "无人");
//  288   //火焰
//  289   LCD_write_CN_string(7,    110, "火焰：");
//  290   if(flame == 1)
//  291     LCD_write_CN_string(49, 110, "有");
//  292   else
//  293     LCD_write_CN_string(49, 110, "无");
//  294 
//  295 
//  296 
//  297   /*点播发送给协调器*/
//  298   msg[0] = temp; msg[1] = humid; msg[2] = light; msg[3] = human; msg[4] = flame;
//  299   if ( AF_DataRequest( &SampleApp_P2P_DstAddr, &SampleApp_epDesc,
//  300                        SAMPLEAPP_P2P_CLUSTERID,
//  301                        5,
//  302                        msg,
//  303                        &SampleApp_TransID,
//  304                        AF_DISCV_ROUTE,
//  305                        AF_DEFAULT_RADIUS ) == afStatus_SUCCESS )
//  306   {
//  307   }
//  308   else
//  309   {
//  310     // Error occurred in request to send.
//  311   }
//  312 
//  313   LED2FLIP;
//  314 }
//  315 #endif
//  316 
//  317 
//  318 
//  319 #if defined (COORDINATOR)
//  320 void Coordinator_Receive_Data(afIncomingMSGPacket_t *pkt)
//  321 {
//  322   uint8 control_cmd[4]; //控制命令，分别为__light,__beep,__motor_dir,__motor_speed的值
//  323   uint8 uart_data[10];   //通过UART串口发送给PC机的数据，依次为pkt->cmd.Data和control_cmd的值，以及前9个数的和(用于数据校验)
//  324   switch(pkt->clusterId)
//  325   {
//  326     case SAMPLEAPP_P2P_CLUSTERID: //协调器收到传感节点的点播数据
//  327       /*简单的控制算法*/
//  328       //灯光
//  329       if( (pkt->cmd.Data[2] == 0) && (pkt->cmd.Data[3] == 1) ) //黑夜且有人则开灯
//  330       {
//  331         control_cmd[0] = 1;
//  332         light_status = 1;
//  333       }
//  334       else //不满足黑夜且有人的条件，可能是人体红外传感器的探测问题，如果灯已开，延时60s再关
//  335       {
//  336         if( (light_status == 1) && (light_count < 60) )
//  337         {
//  338           light_count++;
//  339           control_cmd[0] = 1;
//  340         }
//  341         else
//  342         {
//  343           light_status = 0;
//  344           light_count = 0;
//  345           control_cmd[0] = 0;
//  346         }
//  347       }
//  348       //蜂鸣器
//  349       if(pkt->cmd.Data[4] == 1) //火焰传感器检测到火焰
//  350       {
//  351         fire_status = 1;
//  352         control_cmd[1] = 1;
//  353       }
//  354       else
//  355       {
//  356         if((fire_status == 1) && (fire_count < 60) ) //连续警报60s
//  357         {
//  358           fire_count++;
//  359           control_cmd[1] = 1;
//  360         }
//  361         else
//  362         {
//  363           fire_status = 0;
//  364           fire_count  = 0;
//  365           control_cmd[1] = 0;
//  366         }
//  367       }
//  368       
//  369       //步进电机
//  370       if(pkt->cmd.Data[0] < 15) //制热
//  371       {
//  372         control_cmd[2] = 1;
//  373         if(pkt->cmd.Data[0] > 10)
//  374           control_cmd[3] = 1;
//  375         else if(pkt->cmd.Data[0] > 5)
//  376           control_cmd[3] = 2;
//  377         else
//  378           control_cmd[3] = 3;
//  379       }
//  380       else if(pkt->cmd.Data[0] > 25) //制冷
//  381       {
//  382         control_cmd[2] = 2;
//  383         if(pkt->cmd.Data[0] <30)
//  384           control_cmd[3] = 1;
//  385         else if(pkt->cmd.Data[0] < 35)
//  386           control_cmd[3] = 2;
//  387         else
//  388           control_cmd[3] = 3;
//  389       }
//  390       else //停转
//  391       {
//  392         control_cmd[2] = 0;
//  393         control_cmd[3] = 0;
//  394       }
//  395 
//  396       /*将操作指令通过广播发送到Actuator Node*/
//  397       AF_DataRequest( &SampleApp_Periodic_DstAddr, &SampleApp_epDesc,
//  398                        SAMPLEAPP_PERIODIC_CLUSTERID,
//  399                        4,
//  400                        control_cmd,
//  401                        &SampleApp_TransID,
//  402                        AF_DISCV_ROUTE,
//  403                        AF_DEFAULT_RADIUS );
//  404 
//  405       /*将数据转发到PC机*/
//  406       uart_data[0] = pkt->cmd.Data[0]; 
//  407       uart_data[1] = pkt->cmd.Data[1]; 
//  408       uart_data[2] = pkt->cmd.Data[2]; 
//  409       uart_data[3] = pkt->cmd.Data[3]; 
//  410       uart_data[4] = pkt->cmd.Data[4];
//  411       uart_data[5] = control_cmd[0];
//  412       uart_data[6] = control_cmd[1];
//  413       uart_data[7] = control_cmd[2];
//  414       uart_data[8] = control_cmd[3];
//  415       uart_data[9] = uart_data[0] + uart_data[1] + uart_data[2] + uart_data[3] + uart_data[4] + uart_data[5] + uart_data[6] + uart_data[7] + uart_data[8];
//  416       HalUARTWrite(0, uart_data, 10);
//  417 
//  418       LED2FLIP;
//  419       break;
//  420   }
//  421 }
//  422 #endif
//  423 
//  424 
//  425 
//  426 #if defined (ACTUATOR_NODE)

        RSEG BANKED_CODE:CODE:NOROOT(0)
//  427 void ActuatorNode_Receive_Data(afIncomingMSGPacket_t *pkt)
ActuatorNode_Receive_Data:
        CFI Block cfiBlock2 Using cfiCommon0
        CFI Function ActuatorNode_Receive_Data
        CODE
//  428 {
        FUNCALL ActuatorNode_Receive_Data, LCD_write_CN_string
        LOCFRAME ISTACK, 2, STACK
        LOCFRAME PSTACK, 0, STACK
        LOCFRAME XSTACK, 3, STACK
        LOCFRAME IOVERLAY, 0, STATIC
        LOCFRAME DOVERLAY, 0, STATIC
        ARGFRAME ISTACK, 2, STACK
        ARGFRAME PSTACK, 0, STACK
        ARGFRAME XSTACK, 3, STACK
        ARGFRAME IOVERLAY, 0, STATIC
        ARGFRAME DOVERLAY, 0, STATIC
        FUNCALL ActuatorNode_Receive_Data, RelayOn
        LOCFRAME ISTACK, 2, STACK
        LOCFRAME PSTACK, 0, STACK
        LOCFRAME XSTACK, 3, STACK
        LOCFRAME IOVERLAY, 0, STATIC
        LOCFRAME DOVERLAY, 0, STATIC
        ARGFRAME ISTACK, 2, STACK
        ARGFRAME PSTACK, 0, STACK
        ARGFRAME XSTACK, 3, STACK
        ARGFRAME IOVERLAY, 0, STATIC
        ARGFRAME DOVERLAY, 0, STATIC
        FUNCALL ActuatorNode_Receive_Data, LCD_write_CN_string
        LOCFRAME ISTACK, 2, STACK
        LOCFRAME PSTACK, 0, STACK
        LOCFRAME XSTACK, 3, STACK
        LOCFRAME IOVERLAY, 0, STATIC
        LOCFRAME DOVERLAY, 0, STATIC
        ARGFRAME ISTACK, 2, STACK
        ARGFRAME PSTACK, 0, STACK
        ARGFRAME XSTACK, 3, STACK
        ARGFRAME IOVERLAY, 0, STATIC
        ARGFRAME DOVERLAY, 0, STATIC
        FUNCALL ActuatorNode_Receive_Data, RelayOff
        LOCFRAME ISTACK, 2, STACK
        LOCFRAME PSTACK, 0, STACK
        LOCFRAME XSTACK, 3, STACK
        LOCFRAME IOVERLAY, 0, STATIC
        LOCFRAME DOVERLAY, 0, STATIC
        ARGFRAME ISTACK, 2, STACK
        ARGFRAME PSTACK, 0, STACK
        ARGFRAME XSTACK, 3, STACK
        ARGFRAME IOVERLAY, 0, STATIC
        ARGFRAME DOVERLAY, 0, STATIC
        FUNCALL ActuatorNode_Receive_Data, LCD_write_CN_string
        LOCFRAME ISTACK, 2, STACK
        LOCFRAME PSTACK, 0, STACK
        LOCFRAME XSTACK, 3, STACK
        LOCFRAME IOVERLAY, 0, STATIC
        LOCFRAME DOVERLAY, 0, STATIC
        ARGFRAME ISTACK, 2, STACK
        ARGFRAME PSTACK, 0, STACK
        ARGFRAME XSTACK, 3, STACK
        ARGFRAME IOVERLAY, 0, STATIC
        ARGFRAME DOVERLAY, 0, STATIC
        FUNCALL ActuatorNode_Receive_Data, LCD_write_CN_string
        LOCFRAME ISTACK, 2, STACK
        LOCFRAME PSTACK, 0, STACK
        LOCFRAME XSTACK, 3, STACK
        LOCFRAME IOVERLAY, 0, STATIC
        LOCFRAME DOVERLAY, 0, STATIC
        ARGFRAME ISTACK, 2, STACK
        ARGFRAME PSTACK, 0, STACK
        ARGFRAME XSTACK, 3, STACK
        ARGFRAME IOVERLAY, 0, STATIC
        ARGFRAME DOVERLAY, 0, STATIC
        FUNCALL ActuatorNode_Receive_Data, LCD_write_CN_string
        LOCFRAME ISTACK, 2, STACK
        LOCFRAME PSTACK, 0, STACK
        LOCFRAME XSTACK, 3, STACK
        LOCFRAME IOVERLAY, 0, STATIC
        LOCFRAME DOVERLAY, 0, STATIC
        ARGFRAME ISTACK, 2, STACK
        ARGFRAME PSTACK, 0, STACK
        ARGFRAME XSTACK, 3, STACK
        ARGFRAME IOVERLAY, 0, STATIC
        ARGFRAME DOVERLAY, 0, STATIC
        FUNCALL ActuatorNode_Receive_Data, Beep
        LOCFRAME ISTACK, 2, STACK
        LOCFRAME PSTACK, 0, STACK
        LOCFRAME XSTACK, 3, STACK
        LOCFRAME IOVERLAY, 0, STATIC
        LOCFRAME DOVERLAY, 0, STATIC
        ARGFRAME ISTACK, 2, STACK
        ARGFRAME PSTACK, 0, STACK
        ARGFRAME XSTACK, 3, STACK
        ARGFRAME IOVERLAY, 0, STATIC
        ARGFRAME DOVERLAY, 0, STATIC
        FUNCALL ActuatorNode_Receive_Data, Beep
        LOCFRAME ISTACK, 2, STACK
        LOCFRAME PSTACK, 0, STACK
        LOCFRAME XSTACK, 3, STACK
        LOCFRAME IOVERLAY, 0, STATIC
        LOCFRAME DOVERLAY, 0, STATIC
        ARGFRAME ISTACK, 2, STACK
        ARGFRAME PSTACK, 0, STACK
        ARGFRAME XSTACK, 3, STACK
        ARGFRAME IOVERLAY, 0, STATIC
        ARGFRAME DOVERLAY, 0, STATIC
        FUNCALL ActuatorNode_Receive_Data, Beep
        LOCFRAME ISTACK, 2, STACK
        LOCFRAME PSTACK, 0, STACK
        LOCFRAME XSTACK, 3, STACK
        LOCFRAME IOVERLAY, 0, STATIC
        LOCFRAME DOVERLAY, 0, STATIC
        ARGFRAME ISTACK, 2, STACK
        ARGFRAME PSTACK, 0, STACK
        ARGFRAME XSTACK, 3, STACK
        ARGFRAME IOVERLAY, 0, STATIC
        ARGFRAME DOVERLAY, 0, STATIC
        FUNCALL ActuatorNode_Receive_Data, Beep
        LOCFRAME ISTACK, 2, STACK
        LOCFRAME PSTACK, 0, STACK
        LOCFRAME XSTACK, 3, STACK
        LOCFRAME IOVERLAY, 0, STATIC
        LOCFRAME DOVERLAY, 0, STATIC
        ARGFRAME ISTACK, 2, STACK
        ARGFRAME PSTACK, 0, STACK
        ARGFRAME XSTACK, 3, STACK
        ARGFRAME IOVERLAY, 0, STATIC
        ARGFRAME DOVERLAY, 0, STATIC
        FUNCALL ActuatorNode_Receive_Data, Beep
        LOCFRAME ISTACK, 2, STACK
        LOCFRAME PSTACK, 0, STACK
        LOCFRAME XSTACK, 3, STACK
        LOCFRAME IOVERLAY, 0, STATIC
        LOCFRAME DOVERLAY, 0, STATIC
        ARGFRAME ISTACK, 2, STACK
        ARGFRAME PSTACK, 0, STACK
        ARGFRAME XSTACK, 3, STACK
        ARGFRAME IOVERLAY, 0, STATIC
        ARGFRAME DOVERLAY, 0, STATIC
        FUNCALL ActuatorNode_Receive_Data, Beep
        LOCFRAME ISTACK, 2, STACK
        LOCFRAME PSTACK, 0, STACK
        LOCFRAME XSTACK, 3, STACK
        LOCFRAME IOVERLAY, 0, STATIC
        LOCFRAME DOVERLAY, 0, STATIC
        ARGFRAME ISTACK, 2, STACK
        ARGFRAME PSTACK, 0, STACK
        ARGFRAME XSTACK, 3, STACK
        ARGFRAME IOVERLAY, 0, STATIC
        ARGFRAME DOVERLAY, 0, STATIC
        FUNCALL ActuatorNode_Receive_Data, Beep
        LOCFRAME ISTACK, 2, STACK
        LOCFRAME PSTACK, 0, STACK
        LOCFRAME XSTACK, 3, STACK
        LOCFRAME IOVERLAY, 0, STATIC
        LOCFRAME DOVERLAY, 0, STATIC
        ARGFRAME ISTACK, 2, STACK
        ARGFRAME PSTACK, 0, STACK
        ARGFRAME XSTACK, 3, STACK
        ARGFRAME IOVERLAY, 0, STATIC
        ARGFRAME DOVERLAY, 0, STATIC
        FUNCALL ActuatorNode_Receive_Data, Beep
        LOCFRAME ISTACK, 2, STACK
        LOCFRAME PSTACK, 0, STACK
        LOCFRAME XSTACK, 3, STACK
        LOCFRAME IOVERLAY, 0, STATIC
        LOCFRAME DOVERLAY, 0, STATIC
        ARGFRAME ISTACK, 2, STACK
        ARGFRAME PSTACK, 0, STACK
        ARGFRAME XSTACK, 3, STACK
        ARGFRAME IOVERLAY, 0, STATIC
        ARGFRAME DOVERLAY, 0, STATIC
        FUNCALL ActuatorNode_Receive_Data, Beep
        LOCFRAME ISTACK, 2, STACK
        LOCFRAME PSTACK, 0, STACK
        LOCFRAME XSTACK, 3, STACK
        LOCFRAME IOVERLAY, 0, STATIC
        LOCFRAME DOVERLAY, 0, STATIC
        ARGFRAME ISTACK, 2, STACK
        ARGFRAME PSTACK, 0, STACK
        ARGFRAME XSTACK, 3, STACK
        ARGFRAME IOVERLAY, 0, STATIC
        ARGFRAME DOVERLAY, 0, STATIC
        FUNCALL ActuatorNode_Receive_Data, Beep
        LOCFRAME ISTACK, 2, STACK
        LOCFRAME PSTACK, 0, STACK
        LOCFRAME XSTACK, 3, STACK
        LOCFRAME IOVERLAY, 0, STATIC
        LOCFRAME DOVERLAY, 0, STATIC
        ARGFRAME ISTACK, 2, STACK
        ARGFRAME PSTACK, 0, STACK
        ARGFRAME XSTACK, 3, STACK
        ARGFRAME IOVERLAY, 0, STATIC
        ARGFRAME DOVERLAY, 0, STATIC
        FUNCALL ActuatorNode_Receive_Data, Beep
        LOCFRAME ISTACK, 2, STACK
        LOCFRAME PSTACK, 0, STACK
        LOCFRAME XSTACK, 3, STACK
        LOCFRAME IOVERLAY, 0, STATIC
        LOCFRAME DOVERLAY, 0, STATIC
        ARGFRAME ISTACK, 2, STACK
        ARGFRAME PSTACK, 0, STACK
        ARGFRAME XSTACK, 3, STACK
        ARGFRAME IOVERLAY, 0, STATIC
        ARGFRAME DOVERLAY, 0, STATIC
        FUNCALL ActuatorNode_Receive_Data, Beep
        LOCFRAME ISTACK, 2, STACK
        LOCFRAME PSTACK, 0, STACK
        LOCFRAME XSTACK, 3, STACK
        LOCFRAME IOVERLAY, 0, STATIC
        LOCFRAME DOVERLAY, 0, STATIC
        ARGFRAME ISTACK, 2, STACK
        ARGFRAME PSTACK, 0, STACK
        ARGFRAME XSTACK, 3, STACK
        ARGFRAME IOVERLAY, 0, STATIC
        ARGFRAME DOVERLAY, 0, STATIC
        FUNCALL ActuatorNode_Receive_Data, Beep
        LOCFRAME ISTACK, 2, STACK
        LOCFRAME PSTACK, 0, STACK
        LOCFRAME XSTACK, 3, STACK
        LOCFRAME IOVERLAY, 0, STATIC
        LOCFRAME DOVERLAY, 0, STATIC
        ARGFRAME ISTACK, 2, STACK
        ARGFRAME PSTACK, 0, STACK
        ARGFRAME XSTACK, 3, STACK
        ARGFRAME IOVERLAY, 0, STATIC
        ARGFRAME DOVERLAY, 0, STATIC
        FUNCALL ActuatorNode_Receive_Data, Beep
        LOCFRAME ISTACK, 2, STACK
        LOCFRAME PSTACK, 0, STACK
        LOCFRAME XSTACK, 3, STACK
        LOCFRAME IOVERLAY, 0, STATIC
        LOCFRAME DOVERLAY, 0, STATIC
        ARGFRAME ISTACK, 2, STACK
        ARGFRAME PSTACK, 0, STACK
        ARGFRAME XSTACK, 3, STACK
        ARGFRAME IOVERLAY, 0, STATIC
        ARGFRAME DOVERLAY, 0, STATIC
        FUNCALL ActuatorNode_Receive_Data, Beep
        LOCFRAME ISTACK, 2, STACK
        LOCFRAME PSTACK, 0, STACK
        LOCFRAME XSTACK, 3, STACK
        LOCFRAME IOVERLAY, 0, STATIC
        LOCFRAME DOVERLAY, 0, STATIC
        ARGFRAME ISTACK, 2, STACK
        ARGFRAME PSTACK, 0, STACK
        ARGFRAME XSTACK, 3, STACK
        ARGFRAME IOVERLAY, 0, STATIC
        ARGFRAME DOVERLAY, 0, STATIC
        FUNCALL ActuatorNode_Receive_Data, Beep
        LOCFRAME ISTACK, 2, STACK
        LOCFRAME PSTACK, 0, STACK
        LOCFRAME XSTACK, 3, STACK
        LOCFRAME IOVERLAY, 0, STATIC
        LOCFRAME DOVERLAY, 0, STATIC
        ARGFRAME ISTACK, 2, STACK
        ARGFRAME PSTACK, 0, STACK
        ARGFRAME XSTACK, 3, STACK
        ARGFRAME IOVERLAY, 0, STATIC
        ARGFRAME DOVERLAY, 0, STATIC
        FUNCALL ActuatorNode_Receive_Data, Beep
        LOCFRAME ISTACK, 2, STACK
        LOCFRAME PSTACK, 0, STACK
        LOCFRAME XSTACK, 3, STACK
        LOCFRAME IOVERLAY, 0, STATIC
        LOCFRAME DOVERLAY, 0, STATIC
        ARGFRAME ISTACK, 2, STACK
        ARGFRAME PSTACK, 0, STACK
        ARGFRAME XSTACK, 3, STACK
        ARGFRAME IOVERLAY, 0, STATIC
        ARGFRAME DOVERLAY, 0, STATIC
        FUNCALL ActuatorNode_Receive_Data, Beep
        LOCFRAME ISTACK, 2, STACK
        LOCFRAME PSTACK, 0, STACK
        LOCFRAME XSTACK, 3, STACK
        LOCFRAME IOVERLAY, 0, STATIC
        LOCFRAME DOVERLAY, 0, STATIC
        ARGFRAME ISTACK, 2, STACK
        ARGFRAME PSTACK, 0, STACK
        ARGFRAME XSTACK, 3, STACK
        ARGFRAME IOVERLAY, 0, STATIC
        ARGFRAME DOVERLAY, 0, STATIC
        FUNCALL ActuatorNode_Receive_Data, Beep
        LOCFRAME ISTACK, 2, STACK
        LOCFRAME PSTACK, 0, STACK
        LOCFRAME XSTACK, 3, STACK
        LOCFRAME IOVERLAY, 0, STATIC
        LOCFRAME DOVERLAY, 0, STATIC
        ARGFRAME ISTACK, 2, STACK
        ARGFRAME PSTACK, 0, STACK
        ARGFRAME XSTACK, 3, STACK
        ARGFRAME IOVERLAY, 0, STATIC
        ARGFRAME DOVERLAY, 0, STATIC
        FUNCALL ActuatorNode_Receive_Data, Beep
        LOCFRAME ISTACK, 2, STACK
        LOCFRAME PSTACK, 0, STACK
        LOCFRAME XSTACK, 3, STACK
        LOCFRAME IOVERLAY, 0, STATIC
        LOCFRAME DOVERLAY, 0, STATIC
        ARGFRAME ISTACK, 2, STACK
        ARGFRAME PSTACK, 0, STACK
        ARGFRAME XSTACK, 3, STACK
        ARGFRAME IOVERLAY, 0, STATIC
        ARGFRAME DOVERLAY, 0, STATIC
        FUNCALL ActuatorNode_Receive_Data, LCD_write_CN_string
        LOCFRAME ISTACK, 2, STACK
        LOCFRAME PSTACK, 0, STACK
        LOCFRAME XSTACK, 3, STACK
        LOCFRAME IOVERLAY, 0, STATIC
        LOCFRAME DOVERLAY, 0, STATIC
        ARGFRAME ISTACK, 2, STACK
        ARGFRAME PSTACK, 0, STACK
        ARGFRAME XSTACK, 3, STACK
        ARGFRAME IOVERLAY, 0, STATIC
        ARGFRAME DOVERLAY, 0, STATIC
        FUNCALL ActuatorNode_Receive_Data, LCD_write_CN_string
        LOCFRAME ISTACK, 2, STACK
        LOCFRAME PSTACK, 0, STACK
        LOCFRAME XSTACK, 3, STACK
        LOCFRAME IOVERLAY, 0, STATIC
        LOCFRAME DOVERLAY, 0, STATIC
        ARGFRAME ISTACK, 2, STACK
        ARGFRAME PSTACK, 0, STACK
        ARGFRAME XSTACK, 3, STACK
        ARGFRAME IOVERLAY, 0, STATIC
        ARGFRAME DOVERLAY, 0, STATIC
        FUNCALL ActuatorNode_Receive_Data, LCD_write_CN_string
        LOCFRAME ISTACK, 2, STACK
        LOCFRAME PSTACK, 0, STACK
        LOCFRAME XSTACK, 3, STACK
        LOCFRAME IOVERLAY, 0, STATIC
        LOCFRAME DOVERLAY, 0, STATIC
        ARGFRAME ISTACK, 2, STACK
        ARGFRAME PSTACK, 0, STACK
        ARGFRAME XSTACK, 3, STACK
        ARGFRAME IOVERLAY, 0, STATIC
        ARGFRAME DOVERLAY, 0, STATIC
        FUNCALL ActuatorNode_Receive_Data, LCD_write_CN_string
        LOCFRAME ISTACK, 2, STACK
        LOCFRAME PSTACK, 0, STACK
        LOCFRAME XSTACK, 3, STACK
        LOCFRAME IOVERLAY, 0, STATIC
        LOCFRAME DOVERLAY, 0, STATIC
        ARGFRAME ISTACK, 2, STACK
        ARGFRAME PSTACK, 0, STACK
        ARGFRAME XSTACK, 3, STACK
        ARGFRAME IOVERLAY, 0, STATIC
        ARGFRAME DOVERLAY, 0, STATIC
        FUNCALL ActuatorNode_Receive_Data, LCD_write_CN_string
        LOCFRAME ISTACK, 2, STACK
        LOCFRAME PSTACK, 0, STACK
        LOCFRAME XSTACK, 3, STACK
        LOCFRAME IOVERLAY, 0, STATIC
        LOCFRAME DOVERLAY, 0, STATIC
        ARGFRAME ISTACK, 2, STACK
        ARGFRAME PSTACK, 0, STACK
        ARGFRAME XSTACK, 3, STACK
        ARGFRAME IOVERLAY, 0, STATIC
        ARGFRAME DOVERLAY, 0, STATIC
        FUNCALL ActuatorNode_Receive_Data, LCD_write_CN_string
        LOCFRAME ISTACK, 2, STACK
        LOCFRAME PSTACK, 0, STACK
        LOCFRAME XSTACK, 3, STACK
        LOCFRAME IOVERLAY, 0, STATIC
        LOCFRAME DOVERLAY, 0, STATIC
        ARGFRAME ISTACK, 2, STACK
        ARGFRAME PSTACK, 0, STACK
        ARGFRAME XSTACK, 3, STACK
        ARGFRAME IOVERLAY, 0, STATIC
        ARGFRAME DOVERLAY, 0, STATIC
        FUNCALL ActuatorNode_Receive_Data, LCD_write_EN_string
        LOCFRAME ISTACK, 2, STACK
        LOCFRAME PSTACK, 0, STACK
        LOCFRAME XSTACK, 3, STACK
        LOCFRAME IOVERLAY, 0, STATIC
        LOCFRAME DOVERLAY, 0, STATIC
        ARGFRAME ISTACK, 2, STACK
        ARGFRAME PSTACK, 0, STACK
        ARGFRAME XSTACK, 3, STACK
        ARGFRAME IOVERLAY, 0, STATIC
        ARGFRAME DOVERLAY, 0, STATIC
        FUNCALL ActuatorNode_Receive_Data, StepMotor
        LOCFRAME ISTACK, 2, STACK
        LOCFRAME PSTACK, 0, STACK
        LOCFRAME XSTACK, 3, STACK
        LOCFRAME IOVERLAY, 0, STATIC
        LOCFRAME DOVERLAY, 0, STATIC
        ARGFRAME ISTACK, 2, STACK
        ARGFRAME PSTACK, 0, STACK
        ARGFRAME XSTACK, 3, STACK
        ARGFRAME IOVERLAY, 0, STATIC
        ARGFRAME DOVERLAY, 0, STATIC
        PUSH    DPL
        CFI DPL0 Frame(CFA_SP, 4)
        CFI CFA_SP SP+-4
        PUSH    DPH
        CFI DPH0 Frame(CFA_SP, 5)
        CFI CFA_SP SP+-5
        ; Saved register size: 2
        ; Auto size: 3
        MOV     A,#-0x3
        LCALL   ?ALLOC_XSTACK8
        CFI CFA_XSP16 add(XSP16, 3)
//  429   uint8 str_speed[3];
//  430 
//  431   switch(pkt->clusterId) //执行器接收到协调器广播的数据
        MOV     DPL,R2
        MOV     DPH,R3
        INC     DPTR
        INC     DPTR
        INC     DPTR
        INC     DPTR
        MOVX    A,@DPTR
        XRL     A,#0x1
        JNZ     ??ActuatorNode_Receive_Data_0
        INC     DPTR
        MOVX    A,@DPTR
??ActuatorNode_Receive_Data_0:
        JZ      $+5
        LJMP    ??ActuatorNode_Receive_Data_1 & 0xFFFF
//  432   {
//  433     case SAMPLEAPP_PERIODIC_CLUSTERID:
//  434       /*修改外设控制变量的值，并且在LCD上显示*/
//  435       __light       = pkt->cmd.Data[0];
        MOV     A,R2
        ADD     A,#0x22
        MOV     R0,A
        MOV     A,R3
        ADDC    A,#0x0
        MOV     R1,A
        LCALL   ?Subroutine3 & 0xFFFF
??CrossCallReturnLabel_6:
        MOVX    A,@DPTR
        MOV     DPTR,#__light
        LCALL   ?Subroutine1 & 0xFFFF
//  436       __beep        = pkt->cmd.Data[1];
??CrossCallReturnLabel_2:
        MOVX    A,@DPTR
        MOV     DPTR,#__beep
        LCALL   ?Subroutine1 & 0xFFFF
//  437       __motor_dir   = pkt->cmd.Data[2];
??CrossCallReturnLabel_3:
        INC     DPTR
        MOVX    A,@DPTR
        MOV     DPTR,#__motor_dir
        MOVX    @DPTR,A
//  438       __motor_speed = pkt->cmd.Data[3];
        MOV     DPL,R0
        MOV     DPH,R1
        MOVX    A,@DPTR
        MOV     R0,A
        INC     DPTR
        MOVX    A,@DPTR
        MOV     DPH,A
        MOV     DPL,R0
        INC     DPTR
        INC     DPTR
        INC     DPTR
        MOVX    A,@DPTR
        MOV     DPTR,#__motor_speed
        MOVX    @DPTR,A
//  439       str_speed[0] = (__motor_speed / 10) + 48;
        MOV     B,#0xa
        DIV     AB
        ADD     A,#0x30
        MOV     DPL,?XSP + 0
        MOV     DPH,?XSP + 1
        MOVX    @DPTR,A
//  440       str_speed[1] = (__motor_speed % 10) + 48;
        MOV     DPTR,#__motor_speed
        MOVX    A,@DPTR
        MOV     B,#0xa
        DIV     AB
        MOV     A,B
        ADD     A,#0x30
        PUSH    A
        CFI CFA_SP SP+-6
        MOV     A,#0x1
        LCALL   ?XSTACK_DISP0_8
        POP     A
        CFI CFA_SP SP+-5
        MOVX    @DPTR,A
//  441       str_speed[2] = '\0';
        MOV     A,#0x2
        LCALL   ?XSTACK_DISP0_8
        CLR     A
        MOVX    @DPTR,A
//  442       //灯光
//  443       LCD_write_CN_string(  7,  50, "灯光：");
        ; Setup parameters for call to function LCD_write_CN_string
        MOV     R4,#`?<Constant "\\265\\306\\271\\342\\243\\272">` & 0xff
        MOV     R5,#(`?<Constant "\\265\\306\\271\\342\\243\\272">` >> 8) & 0xff
        MOV     R2,#0x32
        MOV     R1,#0x7
        LCALL   ??LCD_write_CN_string?relay
//  444       if(__light)
        MOV     DPTR,#__light
        MOVX    A,@DPTR
        JZ      ??ActuatorNode_Receive_Data_2
//  445       {
//  446         RelayOn();
        ; Setup parameters for call to function RelayOn
        LCALL   ??RelayOn?relay
//  447         LCD_write_CN_string(49, 50, "开");
        ; Setup parameters for call to function LCD_write_CN_string
        MOV     R4,#`?<Constant "\\277\\252">` & 0xff
        MOV     R5,#(`?<Constant "\\277\\252">` >> 8) & 0xff
        SJMP    ??ActuatorNode_Receive_Data_3
//  448       }
//  449       else
//  450       {
//  451         RelayOff();
??ActuatorNode_Receive_Data_2:
        ; Setup parameters for call to function RelayOff
        LCALL   ??RelayOff?relay
//  452         LCD_write_CN_string(49, 50, "关");
        ; Setup parameters for call to function LCD_write_CN_string
        MOV     R4,#`?<Constant "\\271\\330">` & 0xff
        MOV     R5,#(`?<Constant "\\271\\330">` >> 8) & 0xff
??ActuatorNode_Receive_Data_3:
        MOV     R2,#0x32
        MOV     R1,#0x31
        LCALL   ??LCD_write_CN_string?relay
//  453       }
//  454       //火警
//  455       LCD_write_CN_string(  7,  65, "火警：");
        ; Setup parameters for call to function LCD_write_CN_string
        MOV     R4,#`?<Constant "\\273\\360\\276\\257\\243\\272">` & 0xff
        MOV     R5,#(`?<Constant "\\273\\360\\276\\257\\243\\272">` >> 8) & 0xff
        MOV     R2,#0x41
        MOV     R1,#0x7
        LCALL   ??LCD_write_CN_string?relay
//  456       if(__beep)
        MOV     DPTR,#__beep
        MOVX    A,@DPTR
        JZ      ??ActuatorNode_Receive_Data_4
//  457       {
//  458         LCD_write_CN_string(49, 65, "开");
        ; Setup parameters for call to function LCD_write_CN_string
        MOV     R4,#`?<Constant "\\277\\252">` & 0xff
        MOV     R5,#(`?<Constant "\\277\\252">` >> 8) & 0xff
        MOV     R2,#0x41
        MOV     R1,#0x31
        LCALL   ??LCD_write_CN_string?relay
//  459         Beep(255); Beep(255); Beep(255); Beep(255); Beep(255);
        ; Setup parameters for call to function Beep
        LCALL   ?Subroutine0 & 0xFFFF
//  460         Beep(255); Beep(255); Beep(255); Beep(255); Beep(255);
//  461         Beep(255); Beep(255); Beep(255); Beep(255); Beep(255);
??CrossCallReturnLabel_0:
        ; Setup parameters for call to function Beep
        LCALL   ?Subroutine0 & 0xFFFF
//  462         Beep(255); Beep(255); Beep(255); Beep(255); Beep(255);      
//  463       }
??CrossCallReturnLabel_1:
        SJMP    ??ActuatorNode_Receive_Data_5
//  464       else
//  465       {
//  466         LCD_write_CN_string(49, 65, "关");
??ActuatorNode_Receive_Data_4:
        ; Setup parameters for call to function LCD_write_CN_string
        MOV     R4,#`?<Constant "\\271\\330">` & 0xff
        MOV     R5,#(`?<Constant "\\271\\330">` >> 8) & 0xff
        MOV     R2,#0x41
        MOV     R1,#0x31
        LCALL   ??LCD_write_CN_string?relay
//  467       }
//  468       //空调
//  469       LCD_write_CN_string(    7, 80, "空调：");
??ActuatorNode_Receive_Data_5:
        ; Setup parameters for call to function LCD_write_CN_string
        MOV     R4,#`?<Constant "\\277\\325\\265\\367\\243\\272">` & 0xff
        MOV     R5,#(`?<Constant "\\277\\325\\265\\367\\243\\272">` >> 8) & 0xff
        MOV     R2,#0x50
        MOV     R1,#0x7
        LCALL   ??LCD_write_CN_string?relay
//  470       if(__motor_dir)
        MOV     DPTR,#__motor_dir
        MOVX    A,@DPTR
        JZ      ??ActuatorNode_Receive_Data_6
//  471       {
//  472         if(__motor_dir == 1)
        XRL     A,#0x1
        JNZ     ??ActuatorNode_Receive_Data_7
//  473           LCD_write_CN_string(49, 80, "制热");
        ; Setup parameters for call to function LCD_write_CN_string
        MOV     R4,#`?<Constant "\\326\\306\\310\\310">` & 0xff
        MOV     R5,#(`?<Constant "\\326\\306\\310\\310">` >> 8) & 0xff
        SJMP    ??ActuatorNode_Receive_Data_8
//  474         else
//  475           LCD_write_CN_string(49, 80, "制冷");
??ActuatorNode_Receive_Data_7:
        ; Setup parameters for call to function LCD_write_CN_string
        MOV     R4,#`?<Constant "\\326\\306\\300\\344">` & 0xff
        MOV     R5,#(`?<Constant "\\326\\306\\300\\344">` >> 8) & 0xff
        SJMP    ??ActuatorNode_Receive_Data_8
//  476       }
//  477       else
//  478       {
//  479         LCD_write_CN_string(  49, 80, "关闭");
??ActuatorNode_Receive_Data_6:
        ; Setup parameters for call to function LCD_write_CN_string
        MOV     R4,#`?<Constant "\\271\\330\\261\\325">` & 0xff
        MOV     R5,#(`?<Constant "\\271\\330\\261\\325">` >> 8) & 0xff
??ActuatorNode_Receive_Data_8:
        MOV     R2,#0x50
        MOV     R1,#0x31
        LCALL   ??LCD_write_CN_string?relay
//  480       }
//  481       //
//  482       LCD_write_CN_string(7, 95, "功率：");
        ; Setup parameters for call to function LCD_write_CN_string
        MOV     R4,#`?<Constant "\\271\\246\\302\\312\\243\\272">` & 0xff
        MOV     R5,#(`?<Constant "\\271\\246\\302\\312\\243\\272">` >> 8) & 0xff
        MOV     R2,#0x5f
        MOV     R1,#0x7
        LCALL   ??LCD_write_CN_string?relay
//  483       LCD_write_EN_string(49, 95, str_speed);
        ; Setup parameters for call to function LCD_write_EN_string
        MOV     DPL,?XSP + 0
        MOV     DPH,?XSP + 1
        MOV     R4,DPL
        MOV     R5,DPH
        MOV     R2,#0x5f
        MOV     R1,#0x31
        LCALL   ??LCD_write_EN_string?relay
//  484       if(__motor_dir)
        MOV     DPTR,#__motor_dir
        MOVX    A,@DPTR
        JZ      ??ActuatorNode_Receive_Data_9
//  485       {
//  486         StepMotor(__motor_dir - 1, __motor_speed, 250);
        ; Setup parameters for call to function StepMotor
        MOV     R4,#-0x6
        MOV     R5,#0x0
        MOV     DPTR,#__motor_speed
        MOVX    A,@DPTR
        MOV     R2,A
        MOV     DPTR,#__motor_dir
        MOVX    A,@DPTR
        DEC     A
        MOV     R1,A
        LCALL   ??StepMotor?relay
//  487       }
//  488 		
//  489       LED2FLIP;
??ActuatorNode_Receive_Data_9:
        SETB    B.0
        MOV     C,0x90.1
        JNB     B.0,??ActuatorNode_Receive_Data_10
        CPL     C
??ActuatorNode_Receive_Data_10:
        MOV     0x90.1,C
//  490       break;
//  491       
//  492   }
//  493 }
??ActuatorNode_Receive_Data_1:
        MOV     A,#0x3
        LCALL   ?DEALLOC_XSTACK8
        CFI CFA_XSP16 XSP16+0
        POP     DPH
        CFI DPH0 SameValue
        CFI CFA_SP SP+-4
        POP     DPL
        CFI DPL0 SameValue
        CFI CFA_SP SP+-3
        LJMP    ?BRET
        CFI EndBlock cfiBlock2
        REQUIRE _A_P1

        RSEG BANKED_CODE:CODE:NOROOT(0)
?Subroutine1:
        CFI Block cfiCond3 Using cfiCommon0
        CFI NoFunction
        CFI Conditional ??CrossCallReturnLabel_2
        CFI DPL0 Frame(CFA_SP, 4)
        CFI DPH0 Frame(CFA_SP, 5)
        CFI CFA_SP SP+-5
        CFI CFA_XSP16 add(XSP16, 3)
        CFI Block cfiCond4 Using cfiCommon0
        CFI (cfiCond4) NoFunction
        CFI (cfiCond4) Conditional ??CrossCallReturnLabel_3
        CFI (cfiCond4) DPL0 Frame(CFA_SP, 4)
        CFI (cfiCond4) DPH0 Frame(CFA_SP, 5)
        CFI (cfiCond4) CFA_SP SP+-5
        CFI (cfiCond4) CFA_XSP16 add(XSP16, 3)
        CFI Block cfiPicker5 Using cfiCommon1
        CFI (cfiPicker5) NoFunction
        CFI (cfiPicker5) Picker
        MOVX    @DPTR,A
        LCALL   ?Subroutine3 & 0xFFFF
??CrossCallReturnLabel_7:
        INC     DPTR
        RET
        CFI EndBlock cfiCond3
        CFI EndBlock cfiCond4
        CFI EndBlock cfiPicker5

        RSEG BANKED_CODE:CODE:NOROOT(0)
?Subroutine3:
        CFI Block cfiCond6 Using cfiCommon0
        CFI NoFunction
        CFI Conditional ??CrossCallReturnLabel_6
        CFI DPL0 Frame(CFA_SP, 4)
        CFI DPH0 Frame(CFA_SP, 5)
        CFI CFA_SP SP+-5
        CFI CFA_XSP16 add(XSP16, 3)
        CFI Block cfiCond7 Using cfiCommon0
        CFI (cfiCond7) NoFunction
        CFI (cfiCond7) Conditional ??CrossCallReturnLabel_7, ??CrossCallReturnLabel_2
        CFI (cfiCond7) DPL0 Frame(CFA_SP, 4)
        CFI (cfiCond7) DPH0 Frame(CFA_SP, 5)
        CFI (cfiCond7) CFA_SP SP+-5
        CFI (cfiCond7) CFA_XSP16 add(XSP16, 3)
        CFI Block cfiCond8 Using cfiCommon0
        CFI (cfiCond8) NoFunction
        CFI (cfiCond8) Conditional ??CrossCallReturnLabel_7, ??CrossCallReturnLabel_3
        CFI (cfiCond8) DPL0 Frame(CFA_SP, 4)
        CFI (cfiCond8) DPH0 Frame(CFA_SP, 5)
        CFI (cfiCond8) CFA_SP SP+-5
        CFI (cfiCond8) CFA_XSP16 add(XSP16, 3)
        CFI Block cfiPicker9 Using cfiCommon1
        CFI (cfiPicker9) NoFunction
        CFI (cfiPicker9) Picker
        MOV     DPL,R0
        MOV     DPH,R1
        MOVX    A,@DPTR
        MOV     R2,A
        INC     DPTR
        MOVX    A,@DPTR
        MOV     DPH,A
        MOV     DPL,R2
        RET
        CFI EndBlock cfiCond6
        CFI EndBlock cfiCond7
        CFI EndBlock cfiCond8
        CFI EndBlock cfiPicker9

        RSEG BANKED_CODE:CODE:NOROOT(0)
?Subroutine0:
        CFI Block cfiCond10 Using cfiCommon0
        CFI NoFunction
        CFI Conditional ??CrossCallReturnLabel_0
        CFI DPL0 Frame(CFA_SP, 4)
        CFI DPH0 Frame(CFA_SP, 5)
        CFI CFA_SP SP+-5
        CFI CFA_XSP16 add(XSP16, 3)
        CFI Block cfiCond11 Using cfiCommon0
        CFI (cfiCond11) NoFunction
        CFI (cfiCond11) Conditional ??CrossCallReturnLabel_1
        CFI (cfiCond11) DPL0 Frame(CFA_SP, 4)
        CFI (cfiCond11) DPH0 Frame(CFA_SP, 5)
        CFI (cfiCond11) CFA_SP SP+-5
        CFI (cfiCond11) CFA_XSP16 add(XSP16, 3)
        CFI Block cfiPicker12 Using cfiCommon1
        CFI (cfiPicker12) NoFunction
        CFI (cfiPicker12) Picker
        LCALL   ?Subroutine2 & 0xFFFF
??CrossCallReturnLabel_4:
        ; Setup parameters for call to function Beep
        ; Setup parameters for call to function Beep
        LCALL   ?Subroutine2 & 0xFFFF
??CrossCallReturnLabel_5:
        RET
        CFI EndBlock cfiCond10
        CFI EndBlock cfiCond11
        CFI EndBlock cfiPicker12

        RSEG BANKED_CODE:CODE:NOROOT(0)
?Subroutine2:
        CFI Block cfiCond13 Using cfiCommon0
        CFI NoFunction
        CFI Conditional ??CrossCallReturnLabel_4, ??CrossCallReturnLabel_0
        CFI DPL0 Frame(CFA_SP, 4)
        CFI DPH0 Frame(CFA_SP, 5)
        CFI CFA_SP SP+-5
        CFI CFA_XSP16 add(XSP16, 3)
        CFI Block cfiCond14 Using cfiCommon0
        CFI (cfiCond14) NoFunction
        CFI (cfiCond14) Conditional ??CrossCallReturnLabel_4, ??CrossCallReturnLabel_1
        CFI (cfiCond14) DPL0 Frame(CFA_SP, 4)
        CFI (cfiCond14) DPH0 Frame(CFA_SP, 5)
        CFI (cfiCond14) CFA_SP SP+-5
        CFI (cfiCond14) CFA_XSP16 add(XSP16, 3)
        CFI Block cfiCond15 Using cfiCommon0
        CFI (cfiCond15) NoFunction
        CFI (cfiCond15) Conditional ??CrossCallReturnLabel_5, ??CrossCallReturnLabel_0
        CFI (cfiCond15) DPL0 Frame(CFA_SP, 4)
        CFI (cfiCond15) DPH0 Frame(CFA_SP, 5)
        CFI (cfiCond15) CFA_SP SP+-5
        CFI (cfiCond15) CFA_XSP16 add(XSP16, 3)
        CFI Block cfiCond16 Using cfiCommon0
        CFI (cfiCond16) NoFunction
        CFI (cfiCond16) Conditional ??CrossCallReturnLabel_5, ??CrossCallReturnLabel_1
        CFI (cfiCond16) DPL0 Frame(CFA_SP, 4)
        CFI (cfiCond16) DPH0 Frame(CFA_SP, 5)
        CFI (cfiCond16) CFA_SP SP+-5
        CFI (cfiCond16) CFA_XSP16 add(XSP16, 3)
        CFI Block cfiPicker17 Using cfiCommon1
        CFI (cfiPicker17) NoFunction
        CFI (cfiPicker17) Picker
        MOV     R1,#-0x1
        LCALL   ?Subroutine4 & 0xFFFF
??CrossCallReturnLabel_8:
        LCALL   ?Subroutine4 & 0xFFFF
??CrossCallReturnLabel_9:
        LCALL   ??Beep?relay
        RET
        CFI EndBlock cfiCond13
        CFI EndBlock cfiCond14
        CFI EndBlock cfiCond15
        CFI EndBlock cfiCond16
        CFI EndBlock cfiPicker17

        RSEG BANKED_CODE:CODE:NOROOT(0)
?Subroutine4:
        CFI Block cfiCond18 Using cfiCommon0
        CFI NoFunction
        CFI Conditional ??CrossCallReturnLabel_8, ??CrossCallReturnLabel_4, ??CrossCallReturnLabel_0
        CFI DPL0 Frame(CFA_SP, 4)
        CFI DPH0 Frame(CFA_SP, 5)
        CFI CFA_SP SP+-5
        CFI CFA_XSP16 add(XSP16, 3)
        CFI Block cfiCond19 Using cfiCommon0
        CFI (cfiCond19) NoFunction
        CFI (cfiCond19) Conditional ??CrossCallReturnLabel_8, ??CrossCallReturnLabel_4, ??CrossCallReturnLabel_1
        CFI (cfiCond19) DPL0 Frame(CFA_SP, 4)
        CFI (cfiCond19) DPH0 Frame(CFA_SP, 5)
        CFI (cfiCond19) CFA_SP SP+-5
        CFI (cfiCond19) CFA_XSP16 add(XSP16, 3)
        CFI Block cfiCond20 Using cfiCommon0
        CFI (cfiCond20) NoFunction
        CFI (cfiCond20) Conditional ??CrossCallReturnLabel_8, ??CrossCallReturnLabel_5, ??CrossCallReturnLabel_0
        CFI (cfiCond20) DPL0 Frame(CFA_SP, 4)
        CFI (cfiCond20) DPH0 Frame(CFA_SP, 5)
        CFI (cfiCond20) CFA_SP SP+-5
        CFI (cfiCond20) CFA_XSP16 add(XSP16, 3)
        CFI Block cfiCond21 Using cfiCommon0
        CFI (cfiCond21) NoFunction
        CFI (cfiCond21) Conditional ??CrossCallReturnLabel_8, ??CrossCallReturnLabel_5, ??CrossCallReturnLabel_1
        CFI (cfiCond21) DPL0 Frame(CFA_SP, 4)
        CFI (cfiCond21) DPH0 Frame(CFA_SP, 5)
        CFI (cfiCond21) CFA_SP SP+-5
        CFI (cfiCond21) CFA_XSP16 add(XSP16, 3)
        CFI Block cfiCond22 Using cfiCommon0
        CFI (cfiCond22) NoFunction
        CFI (cfiCond22) Conditional ??CrossCallReturnLabel_9, ??CrossCallReturnLabel_4, ??CrossCallReturnLabel_0
        CFI (cfiCond22) DPL0 Frame(CFA_SP, 4)
        CFI (cfiCond22) DPH0 Frame(CFA_SP, 5)
        CFI (cfiCond22) CFA_SP SP+-5
        CFI (cfiCond22) CFA_XSP16 add(XSP16, 3)
        CFI Block cfiCond23 Using cfiCommon0
        CFI (cfiCond23) NoFunction
        CFI (cfiCond23) Conditional ??CrossCallReturnLabel_9, ??CrossCallReturnLabel_4, ??CrossCallReturnLabel_1
        CFI (cfiCond23) DPL0 Frame(CFA_SP, 4)
        CFI (cfiCond23) DPH0 Frame(CFA_SP, 5)
        CFI (cfiCond23) CFA_SP SP+-5
        CFI (cfiCond23) CFA_XSP16 add(XSP16, 3)
        CFI Block cfiCond24 Using cfiCommon0
        CFI (cfiCond24) NoFunction
        CFI (cfiCond24) Conditional ??CrossCallReturnLabel_9, ??CrossCallReturnLabel_5, ??CrossCallReturnLabel_0
        CFI (cfiCond24) DPL0 Frame(CFA_SP, 4)
        CFI (cfiCond24) DPH0 Frame(CFA_SP, 5)
        CFI (cfiCond24) CFA_SP SP+-5
        CFI (cfiCond24) CFA_XSP16 add(XSP16, 3)
        CFI Block cfiCond25 Using cfiCommon0
        CFI (cfiCond25) NoFunction
        CFI (cfiCond25) Conditional ??CrossCallReturnLabel_9, ??CrossCallReturnLabel_5, ??CrossCallReturnLabel_1
        CFI (cfiCond25) DPL0 Frame(CFA_SP, 4)
        CFI (cfiCond25) DPH0 Frame(CFA_SP, 5)
        CFI (cfiCond25) CFA_SP SP+-5
        CFI (cfiCond25) CFA_XSP16 add(XSP16, 3)
        CFI Block cfiPicker26 Using cfiCommon1
        CFI (cfiPicker26) NoFunction
        CFI (cfiPicker26) Picker
        LCALL   ??Beep?relay
        ; Setup parameters for call to function Beep
        ; Setup parameters for call to function Beep
        ; Setup parameters for call to function Beep
        ; Setup parameters for call to function Beep
        ; Setup parameters for call to function Beep
        ; Setup parameters for call to function Beep
        ; Setup parameters for call to function Beep
        ; Setup parameters for call to function Beep
        MOV     R1,#-0x1
        LCALL   ??Beep?relay
        ; Setup parameters for call to function Beep
        ; Setup parameters for call to function Beep
        ; Setup parameters for call to function Beep
        ; Setup parameters for call to function Beep
        ; Setup parameters for call to function Beep
        ; Setup parameters for call to function Beep
        ; Setup parameters for call to function Beep
        ; Setup parameters for call to function Beep
        MOV     R1,#-0x1
        RET
        CFI EndBlock cfiCond18
        CFI EndBlock cfiCond19
        CFI EndBlock cfiCond20
        CFI EndBlock cfiCond21
        CFI EndBlock cfiCond22
        CFI EndBlock cfiCond23
        CFI EndBlock cfiCond24
        CFI EndBlock cfiCond25
        CFI EndBlock cfiPicker26

        RSEG XDATA_ID:CODE:NOROOT(0)
`?<Initializer for AppTitle>`:
        DB "Smart Home"

        RSEG BANK_RELAYS:CODE:REORDER:NOROOT(0)
??SampleApp_Init?relay:
        LCALL   ?BDISPATCH
        DATA
        DC24    SampleApp_Init

        RSEG BANK_RELAYS:CODE:REORDER:NOROOT(0)
??SampleApp_ProcessEvent?relay:
        LCALL   ?BDISPATCH
        DATA
        DC24    SampleApp_ProcessEvent

        RSEG BANK_RELAYS:CODE:REORDER:NOROOT(0)
??ActuatorNode_Receive_Data?relay:
        LCALL   ?BDISPATCH
        DATA
        DC24    ActuatorNode_Receive_Data

        RSEG XDATA_ROM_C:CONST:REORDER:NOROOT(0)
        DATA8
`?<Constant "\\265\\306\\271\\342\\243\\272">`:
        DB "\265\306\271\342\243\272"

        RSEG XDATA_ROM_C:CONST:REORDER:NOROOT(0)
        DATA8
`?<Constant "\\277\\252">`:
        DB "\277\252"

        RSEG XDATA_ROM_C:CONST:REORDER:NOROOT(0)
        DATA8
`?<Constant "\\271\\330">`:
        DB "\271\330"

        RSEG XDATA_ROM_C:CONST:REORDER:NOROOT(0)
        DATA8
`?<Constant "\\273\\360\\276\\257\\243\\272">`:
        DB "\273\360\276\257\243\272"

        RSEG XDATA_ROM_C:CONST:REORDER:NOROOT(0)
        DATA8
`?<Constant "\\277\\325\\265\\367\\243\\272">`:
        DB "\277\325\265\367\243\272"

        RSEG XDATA_ROM_C:CONST:REORDER:NOROOT(0)
        DATA8
`?<Constant "\\326\\306\\310\\310">`:
        DB "\326\306\310\310"

        RSEG XDATA_ROM_C:CONST:REORDER:NOROOT(0)
        DATA8
`?<Constant "\\326\\306\\300\\344">`:
        DB "\326\306\300\344"

        RSEG XDATA_ROM_C:CONST:REORDER:NOROOT(0)
        DATA8
`?<Constant "\\271\\330\\261\\325">`:
        DB "\271\330\261\325"

        RSEG XDATA_ROM_C:CONST:REORDER:NOROOT(0)
        DATA8
`?<Constant "\\271\\246\\302\\312\\243\\272">`:
        DB "\271\246\302\312\243\272"

        END
//  494 #endif
//  495 
//  496 
//  497 
// 
// 617 bytes in segment BANKED_CODE
//  18 bytes in segment BANK_RELAYS
//   1 byte  in segment SFR_AN
//  11 bytes in segment XDATA_I
//  11 bytes in segment XDATA_ID
//  67 bytes in segment XDATA_ROM_C
//  69 bytes in segment XDATA_Z
// 
// 646 bytes of CODE  memory
//  67 bytes of CONST memory
//   0 bytes of DATA  memory (+ 1 byte shared)
//  80 bytes of XDATA memory
//
//Errors: none
//Warnings: none
